 0000                   cpu LMM
                        .module main.c
                        .area text(rom, con, rel)
 0000                   .dbfile ./main.c
                        .area data(ram, con, rel)
 0000                   .dbfile ./main.c
 0000           _mod::
 0000 00000000          .word 0x0,0x0
 0004 000000000000000000000000000000000000000000000000000000000000000000000000000000000000000000000000000000000000000000000000  .word 0,0,0,0,0,0,0,0,0,0,0,0,0,0,0,0,0,0,0,0,0,0,0,0,0,0,0,0,0,0
 0040 000000000000000000000000000000000000000000000000000000000000000000000000000000000000000000000000000000000000000000000000  .word 0,0,0,0,0,0,0,0,0,0,0,0,0,0,0,0,0,0,0,0,0,0,0,0,0,0,0,0,0,0
 007C 000000000000000000000000000000000000000000000000000000000000000000000000000000000000000000000000000000000000000000000000  .word 0,0,0,0,0,0,0,0,0,0,0,0,0,0,0,0,0,0,0,0,0,0,0,0,0,0,0,0,0,0
 00B8 000000000000000000000000000000000000000000000000000000000000000000000000000000000000000000000000000000000000000000000000  .word 0,0,0,0,0,0,0,0,0,0,0,0,0,0,0,0,0,0,0,0,0,0,0,0,0,0,0,0,0,0
 00F4 00000000000000000000      .word 0,0,0,0,0
 00FE 0000              .byte 0,0
 0100                   .dbfile C:\Users\HARISH~1\Desktop\SEM1CO~1\566\Project3\Versions\VERSIO~1\Project1\Project1\fft.h
 0100                   .dbsym e mod _mod A[256:64]D
                        .area data(ram, con, rel)
 0000                   .dbfile C:\Users\HARISH~1\Desktop\SEM1CO~1\566\Project3\Versions\VERSIO~1\Project1\Project1\fft.h
                        .area data(ram, con, rel)
 0000                   .dbfile C:\Users\HARISH~1\Desktop\SEM1CO~1\566\Project3\Versions\VERSIO~1\Project1\Project1\fft.h
 0000           _data_re::
 0000 00000000          .word 0x0,0x0
 0004 000000000000000000000000000000000000000000000000000000000000000000000000000000000000000000000000000000000000000000000000  .word 0,0,0,0,0,0,0,0,0,0,0,0,0,0,0,0,0,0,0,0,0,0,0,0,0,0,0,0,0,0
 0040 000000000000000000000000000000000000000000000000000000000000000000000000000000000000000000000000000000000000000000000000  .word 0,0,0,0,0,0,0,0,0,0,0,0,0,0,0,0,0,0,0,0,0,0,0,0,0,0,0,0,0,0
 007C 000000000000000000000000000000000000000000000000000000000000000000000000000000000000000000000000000000000000000000000000  .word 0,0,0,0,0,0,0,0,0,0,0,0,0,0,0,0,0,0,0,0,0,0,0,0,0,0,0,0,0,0
 00B8 000000000000000000000000000000000000000000000000000000000000000000000000000000000000000000000000000000000000000000000000  .word 0,0,0,0,0,0,0,0,0,0,0,0,0,0,0,0,0,0,0,0,0,0,0,0,0,0,0,0,0,0
 00F4 00000000000000000000      .word 0,0,0,0,0
 00FE 0000              .byte 0,0
 0100                   .dbsym e data_re _data_re A[256:64]D
                        .area data(ram, con, rel)
 0000                   .dbfile C:\Users\HARISH~1\Desktop\SEM1CO~1\566\Project3\Versions\VERSIO~1\Project1\Project1\fft.h
                        .area data(ram, con, rel)
 0000                   .dbfile C:\Users\HARISH~1\Desktop\SEM1CO~1\566\Project3\Versions\VERSIO~1\Project1\Project1\fft.h
 0000           _data_imm::
 0000 00000000          .word 0x0,0x0
 0004 000000000000000000000000000000000000000000000000000000000000000000000000000000000000000000000000000000000000000000000000  .word 0,0,0,0,0,0,0,0,0,0,0,0,0,0,0,0,0,0,0,0,0,0,0,0,0,0,0,0,0,0
 0040 000000000000000000000000000000000000000000000000000000000000000000000000000000000000000000000000000000000000000000000000  .word 0,0,0,0,0,0,0,0,0,0,0,0,0,0,0,0,0,0,0,0,0,0,0,0,0,0,0,0,0,0
 007C 000000000000000000000000000000000000000000000000000000000000000000000000000000000000000000000000000000000000000000000000  .word 0,0,0,0,0,0,0,0,0,0,0,0,0,0,0,0,0,0,0,0,0,0,0,0,0,0,0,0,0,0
 00B8 000000000000000000000000000000000000000000000000000000000000000000000000000000000000000000000000000000000000000000000000  .word 0,0,0,0,0,0,0,0,0,0,0,0,0,0,0,0,0,0,0,0,0,0,0,0,0,0,0,0,0,0
 00F4 00000000000000000000      .word 0,0,0,0,0
 00FE 0000              .byte 0,0
 0100                   .dbsym e data_imm _data_imm A[256:64]D
                        .area data(ram, con, rel)
 0000                   .dbfile C:\Users\HARISH~1\Desktop\SEM1CO~1\566\Project3\Versions\VERSIO~1\Project1\Project1\fft.h
                        .area data(ram, con, rel)
 0000                   .dbfile C:\Users\HARISH~1\Desktop\SEM1CO~1\566\Project3\Versions\VERSIO~1\Project1\Project1\fft.h
 0000           _data_re1::
 0000 00000000          .word 0x0,0x0
 0004 000000000000000000000000000000000000000000000000000000000000000000000000000000000000000000000000000000000000000000000000  .word 0,0,0,0,0,0,0,0,0,0,0,0,0,0,0,0,0,0,0,0,0,0,0,0,0,0,0,0,0,0
 0040 000000000000000000000000000000000000000000000000000000000000000000000000000000000000000000000000000000000000000000000000  .word 0,0,0,0,0,0,0,0,0,0,0,0,0,0,0,0,0,0,0,0,0,0,0,0,0,0,0,0,0,0
 007C 000000000000000000000000000000000000000000000000000000000000000000000000000000000000000000000000000000000000000000000000  .word 0,0,0,0,0,0,0,0,0,0,0,0,0,0,0,0,0,0,0,0,0,0,0,0,0,0,0,0,0,0
 00B8 000000000000000000000000000000000000000000000000000000000000000000000000000000000000000000000000000000000000000000000000  .word 0,0,0,0,0,0,0,0,0,0,0,0,0,0,0,0,0,0,0,0,0,0,0,0,0,0,0,0,0,0
 00F4 00000000000000000000      .word 0,0,0,0,0
 00FE 0000              .byte 0,0
 0100                   .dbsym e data_re1 _data_re1 A[256:64]D
                        .area data(ram, con, rel)
 0000                   .dbfile C:\Users\HARISH~1\Desktop\SEM1CO~1\566\Project3\Versions\VERSIO~1\Project1\Project1\fft.h
                        .area data(ram, con, rel)
 0000                   .dbfile C:\Users\HARISH~1\Desktop\SEM1CO~1\566\Project3\Versions\VERSIO~1\Project1\Project1\fft.h
 0000           _data_imm1::
 0000 00000000          .word 0x0,0x0
 0004 000000000000000000000000000000000000000000000000000000000000000000000000000000000000000000000000000000000000000000000000  .word 0,0,0,0,0,0,0,0,0,0,0,0,0,0,0,0,0,0,0,0,0,0,0,0,0,0,0,0,0,0
 0040 000000000000000000000000000000000000000000000000000000000000000000000000000000000000000000000000000000000000000000000000  .word 0,0,0,0,0,0,0,0,0,0,0,0,0,0,0,0,0,0,0,0,0,0,0,0,0,0,0,0,0,0
 007C 000000000000000000000000000000000000000000000000000000000000000000000000000000000000000000000000000000000000000000000000  .word 0,0,0,0,0,0,0,0,0,0,0,0,0,0,0,0,0,0,0,0,0,0,0,0,0,0,0,0,0,0
 00B8 000000000000000000000000000000000000000000000000000000000000000000000000000000000000000000000000000000000000000000000000  .word 0,0,0,0,0,0,0,0,0,0,0,0,0,0,0,0,0,0,0,0,0,0,0,0,0,0,0,0,0,0
 00F4 00000000000000000000      .word 0,0,0,0,0
 00FE 0000              .byte 0,0
 0100                   .dbsym e data_imm1 _data_imm1 A[256:64]D
                        .area data(ram, con, rel)
 0000                   .dbfile C:\Users\HARISH~1\Desktop\SEM1CO~1\566\Project3\Versions\VERSIO~1\Project1\Project1\fft.h
                        .area text(rom, con, rel)
 0000                   .dbfile C:\Users\HARISH~1\Desktop\SEM1CO~1\566\Project3\Versions\VERSIO~1\Project1\Project1\fft.h
 0000                   .dbfunc e FFT _FFT fV
 0000           ;             ty -> X+68
 0000           ;             tx -> X+64
 0000           ;             i2 -> X+60
 0000           ;              l -> X+56
 0000           ;              z -> X+52
 0000           ;             c2 -> X+48
 0000           ;             c1 -> X+44
 0000           ;              k -> X+40
 0000           ;              j -> X+36
 0000           ;             l2 -> X+32
 0000           ;              n -> X+28
 0000           ;             l1 -> X+24
 0000           ;             u2 -> X+20
 0000           ;             u1 -> X+16
 0000           ;             t2 -> X+12
 0000           ;             t1 -> X+8
 0000           ;             i1 -> X+4
 0000           ;              i -> X+0
 0000           ;           modl -> X-15
 0000           ;              y -> X-13
 0000           ;              x -> X-11
 0000           ;              m -> X-9
 0000           ;            dir -> X-5
 0000           _FFT::
 0000                   .dbline -1
 0000 10                push X
 0001 4F                mov X,SP
 0002 384A              add SP,74
 0004                   .dbline 19
 0004           ; #include "math.h"                              //mathematical library
 0004           ; 
 0004           ; // FFT parameters
 0004           ; #define N_points 64             //number of points                            
 0004           ; #define exponent log(64)/log(2)  //log2(N_points); for N_points=64 -> exponent=6
 0004           ; 
 0004           ; // FFT variables
 0004           ; double mod[N_points]={0};        //arrays
 0004           ; double data_re[N_points]={0};
 0004           ; double data_imm[N_points]={0};
 0004           ; //define these in FFT.h
 0004           ; //int mod1[N_points]={0};        //arrays
 0004           ; double data_re1[N_points]={0};
 0004           ; double data_imm1[N_points]={0};
 0004           ; int maxAmp, maxFreq;
 0004           ; 
 0004           ; // FFT function
 0004           ; void FFT(int dir,double m,double *x,double *y,double *modl)
 0004           ; {
 0004                   .dbline 27
 0004           ;    // dir:  forward (=1) o inverse (!=1) transform; 
 0004           ;    // m exponent;
 0004           ;    
 0004           ;    long n,i,i1,j,k,i2,l,l1,l2;
 0004           ;    double c1,c2,tx,ty,t1,t2,u1,u2,z;
 0004           ; 
 0004           ;    /* Calculate the number of points */
 0004           ;    n = 1;
 0004 561C00            mov [X+28],0
 0007 561D00            mov [X+29],0
 000A 561E00            mov [X+30],0
 000D 561F01            mov [X+31],1
 0010                   .dbline 28
 0010           ;    for (i=0;i<m;i++) 
 0010 560000            mov [X+0],0
 0013 560100            mov [X+1],0
 0016 560200            mov [X+2],0
 0019 560300            mov [X+3],0
 001C 8015              xjmp L5
 001E           L2:
 001E                   .dbline 29
 001E           ;       n *= 2;
 001E 661F              asl [X+31]
 0020 6C1E              rlc [X+30]
 0022 6C1D              rlc [X+29]
 0024 6C1C              rlc [X+28]
 0026           L3:
 0026                   .dbline 28
 0026 070301            add [X+3],1
 0029 0F0200            adc [X+2],0
 002C 0F0100            adc [X+1],0
 002F 0F0000            adc [X+0],0
 0032           L5:
 0032                   .dbline 28
 0032 62D000            mov REG[0xd0],>__r0
 0035 5200              mov A,[X+0]
 0037 08                push A
 0038 5201              mov A,[X+1]
 003A 08                push A
 003B 5202              mov A,[X+2]
 003D 08                push A
 003E 5203              mov A,[X+3]
 0040 08                push A
 0041 7C0000            xcall __long2fp
 0044 18                pop A
 0045 5300              mov [__r3],A
 0047 18                pop A
 0048 5300              mov [__r2],A
 004A 18                pop A
 004B 5300              mov [__r1],A
 004D 18                pop A
 004E 5300              mov [__r0],A
 0050 52F7              mov A,[X-9]
 0052 08                push A
 0053 52F8              mov A,[X-8]
 0055 08                push A
 0056 52F9              mov A,[X-7]
 0058 08                push A
 0059 52FA              mov A,[X-6]
 005B 08                push A
 005C 5100              mov A,[__r0]
 005E 08                push A
 005F 5100              mov A,[__r1]
 0061 08                push A
 0062 5100              mov A,[__r2]
 0064 08                push A
 0065 5100              mov A,[__r3]
 0067 08                push A
 0068 7C0000            xcall __fpcmp
 006B 38F8              add SP,-8
 006D 39FF              cmp A,-1
 006F AFAE              jz L2
 0071                   .dbline 32
 0071           ; 
 0071           ;    /* Do the bit reversal */
 0071           ;    i2 = n >> 1;
 0071 521C              mov A,[X+28]
 0073 5300              mov [__r0],A
 0075 521D              mov A,[X+29]
 0077 5300              mov [__r1],A
 0079 521E              mov A,[X+30]
 007B 5300              mov [__r2],A
 007D 521F              mov A,[X+31]
 007F 5300              mov [__r3],A
 0081 6800              asr [__r0]
 0083 6E00              rrc [__r1]
 0085 6E00              rrc [__r2]
 0087 6E00              rrc [__r3]
 0089 5100              mov A,[__r0]
 008B 543C              mov [X+60],A
 008D 5100              mov A,[__r1]
 008F 543D              mov [X+61],A
 0091 5100              mov A,[__r2]
 0093 543E              mov [X+62],A
 0095 5100              mov A,[__r3]
 0097 543F              mov [X+63],A
 0099                   .dbline 33
 0099           ;    j = 0;
 0099 562400            mov [X+36],0
 009C 562500            mov [X+37],0
 009F 562600            mov [X+38],0
 00A2 562700            mov [X+39],0
 00A5                   .dbline 34
 00A5           ;    for (i=0;i<n-1;i++) {
 00A5 560000            mov [X+0],0
 00A8 560100            mov [X+1],0
 00AB 560200            mov [X+2],0
 00AE 560300            mov [X+3],0
 00B1 82A4              xjmp L9
 00B3           L6:
 00B3                   .dbline 34
 00B3                   .dbline 35
 00B3           ;       if (i < j) {
 00B3 5203              mov A,[X+3]
 00B5 1327              sub A,[X+39]
 00B7 5202              mov A,[X+2]
 00B9 1B26              sbb A,[X+38]
 00BB 5201              mov A,[X+1]
 00BD 1B25              sbb A,[X+37]
 00BF 5224              mov A,[X+36]
 00C1 3180              xor A,-128
 00C3 62D000            mov REG[0xd0],>__r0
 00C6 5300              mov [__rX],A
 00C8 5200              mov A,[X+0]
 00CA 3180              xor A,-128
 00CC 1A00              sbb A,[__rX]
 00CE D224              jnc L10
 00D0           X1:
 00D0                   .dbline 36
 00D0           ;          tx = x[i];
 00D0                   .dbline 36
 00D0 62D000            mov REG[0xd0],>__r0
 00D3 5200              mov A,[X+0]
 00D5 5300              mov [__r0],A
 00D7 5201              mov A,[X+1]
 00D9 5300              mov [__r1],A
 00DB 5202              mov A,[X+2]
 00DD 5300              mov [__r2],A
 00DF 5203              mov A,[X+3]
 00E1 5300              mov [__r3],A
 00E3 5002              mov A,2
 00E5           X2:
 00E5 62D000            mov REG[0xd0],>__r0
 00E8 6500              asl [__r3]
 00EA 6B00              rlc [__r2]
 00EC 6B00              rlc [__r1]
 00EE 6B00              rlc [__r0]
 00F0 78                dec A
 00F1 BFF3              jnz X2
 00F3 5100              mov A,[__r3]
 00F5 5300              mov [__r1],A
 00F7 5100              mov A,[__r2]
 00F9 5300              mov [__r0],A
 00FB 52F6              mov A,[X-10]
 00FD 0400              add [__r1],A
 00FF 52F5              mov A,[X-11]
 0101 0C00              adc [__r0],A
 0103 5100              mov A,[__r0]
 0105 60D4              mov REG[0xd4],A
 0107 3E00              mvi A,[__r1]
 0109 5440              mov [X+64],A
 010B 3E00              mvi A,[__r1]
 010D 5441              mov [X+65],A
 010F 3E00              mvi A,[__r1]
 0111 5442              mov [X+66],A
 0113 3E00              mvi A,[__r1]
 0115 5443              mov [X+67],A
 0117                   .dbline 37
 0117           ;          ty = y[i];
 0117 5200              mov A,[X+0]
 0119 5300              mov [__r0],A
 011B 5201              mov A,[X+1]
 011D 5300              mov [__r1],A
 011F 5202              mov A,[X+2]
 0121 5300              mov [__r2],A
 0123 5203              mov A,[X+3]
 0125 5300              mov [__r3],A
 0127 5002              mov A,2
 0129           X3:
 0129 62D000            mov REG[0xd0],>__r0
 012C 6500              asl [__r3]
 012E 6B00              rlc [__r2]
 0130 6B00              rlc [__r1]
 0132 6B00              rlc [__r0]
 0134 78                dec A
 0135 BFF3              jnz X3
 0137 5100              mov A,[__r3]
 0139 5300              mov [__r1],A
 013B 5100              mov A,[__r2]
 013D 5300              mov [__r0],A
 013F 52F4              mov A,[X-12]
 0141 0400              add [__r1],A
 0143 52F3              mov A,[X-13]
 0145 0C00              adc [__r0],A
 0147 5100              mov A,[__r0]
 0149 60D4              mov REG[0xd4],A
 014B 3E00              mvi A,[__r1]
 014D 5444              mov [X+68],A
 014F 3E00              mvi A,[__r1]
 0151 5445              mov [X+69],A
 0153 3E00              mvi A,[__r1]
 0155 5446              mov [X+70],A
 0157 3E00              mvi A,[__r1]
 0159 5447              mov [X+71],A
 015B                   .dbline 38
 015B           ;          x[i] = x[j];
 015B 5224              mov A,[X+36]
 015D 5300              mov [__r0],A
 015F 5225              mov A,[X+37]
 0161 5300              mov [__r1],A
 0163 5226              mov A,[X+38]
 0165 5300              mov [__r2],A
 0167 5227              mov A,[X+39]
 0169 5300              mov [__r3],A
 016B 5002              mov A,2
 016D           X4:
 016D 62D000            mov REG[0xd0],>__r0
 0170 6500              asl [__r3]
 0172 6B00              rlc [__r2]
 0174 6B00              rlc [__r1]
 0176 6B00              rlc [__r0]
 0178 78                dec A
 0179 BFF3              jnz X4
 017B 5100              mov A,[__r3]
 017D 5300              mov [__r1],A
 017F 5100              mov A,[__r2]
 0181 5300              mov [__r0],A
 0183 52F6              mov A,[X-10]
 0185 0400              add [__r1],A
 0187 52F5              mov A,[X-11]
 0189 0C00              adc [__r0],A
 018B 5100              mov A,[__r0]
 018D 60D4              mov REG[0xd4],A
 018F 3E00              mvi A,[__r1]
 0191 5300              mov [__r4],A
 0193 3E00              mvi A,[__r1]
 0195 5300              mov [__r5],A
 0197 3E00              mvi A,[__r1]
 0199 5300              mov [__r6],A
 019B 3E00              mvi A,[__r1]
 019D 5300              mov [__r7],A
 019F 5200              mov A,[X+0]
 01A1 5300              mov [__r0],A
 01A3 5201              mov A,[X+1]
 01A5 5300              mov [__r1],A
 01A7 5202              mov A,[X+2]
 01A9 5300              mov [__r2],A
 01AB 5203              mov A,[X+3]
 01AD 5300              mov [__r3],A
 01AF 5002              mov A,2
 01B1           X5:
 01B1 62D000            mov REG[0xd0],>__r0
 01B4 6500              asl [__r3]
 01B6 6B00              rlc [__r2]
 01B8 6B00              rlc [__r1]
 01BA 6B00              rlc [__r0]
 01BC 78                dec A
 01BD BFF3              jnz X5
 01BF 5100              mov A,[__r3]
 01C1 5300              mov [__r1],A
 01C3 5100              mov A,[__r2]
 01C5 5300              mov [__r0],A
 01C7 52F6              mov A,[X-10]
 01C9 0400              add [__r1],A
 01CB 52F5              mov A,[X-11]
 01CD 0C00              adc [__r0],A
 01CF 5100              mov A,[__r0]
 01D1 60D5              mov REG[0xd5],A
 01D3 5100              mov A,[__r4]
 01D5 3F00              mvi [__r1],A
 01D7 5100              mov A,[__r5]
 01D9 3F00              mvi [__r1],A
 01DB 5100              mov A,[__r6]
 01DD 3F00              mvi [__r1],A
 01DF 5100              mov A,[__r7]
 01E1 3F00              mvi [__r1],A
 01E3                   .dbline 39
 01E3           ;          y[i] = y[j];
 01E3 5224              mov A,[X+36]
 01E5 5300              mov [__r0],A
 01E7 5225              mov A,[X+37]
 01E9 5300              mov [__r1],A
 01EB 5226              mov A,[X+38]
 01ED 5300              mov [__r2],A
 01EF 5227              mov A,[X+39]
 01F1 5300              mov [__r3],A
 01F3 5002              mov A,2
 01F5           X6:
 01F5 62D000            mov REG[0xd0],>__r0
 01F8 6500              asl [__r3]
 01FA 6B00              rlc [__r2]
 01FC 6B00              rlc [__r1]
 01FE 6B00              rlc [__r0]
 0200 78                dec A
 0201 BFF3              jnz X6
 0203 5100              mov A,[__r3]
 0205 5300              mov [__r1],A
 0207 5100              mov A,[__r2]
 0209 5300              mov [__r0],A
 020B 52F4              mov A,[X-12]
 020D 0400              add [__r1],A
 020F 52F3              mov A,[X-13]
 0211 0C00              adc [__r0],A
 0213 5100              mov A,[__r0]
 0215 60D4              mov REG[0xd4],A
 0217 3E00              mvi A,[__r1]
 0219 5300              mov [__r4],A
 021B 3E00              mvi A,[__r1]
 021D 5300              mov [__r5],A
 021F 3E00              mvi A,[__r1]
 0221 5300              mov [__r6],A
 0223 3E00              mvi A,[__r1]
 0225 5300              mov [__r7],A
 0227 5200              mov A,[X+0]
 0229 5300              mov [__r0],A
 022B 5201              mov A,[X+1]
 022D 5300              mov [__r1],A
 022F 5202              mov A,[X+2]
 0231 5300              mov [__r2],A
 0233 5203              mov A,[X+3]
 0235 5300              mov [__r3],A
 0237 5002              mov A,2
 0239           X7:
 0239 62D000            mov REG[0xd0],>__r0
 023C 6500              asl [__r3]
 023E 6B00              rlc [__r2]
 0240 6B00              rlc [__r1]
 0242 6B00              rlc [__r0]
 0244 78                dec A
 0245 BFF3              jnz X7
 0247 5100              mov A,[__r3]
 0249 5300              mov [__r1],A
 024B 5100              mov A,[__r2]
 024D 5300              mov [__r0],A
 024F 52F4              mov A,[X-12]
 0251 0400              add [__r1],A
 0253 52F3              mov A,[X-13]
 0255 0C00              adc [__r0],A
 0257 5100              mov A,[__r0]
 0259 60D5              mov REG[0xd5],A
 025B 5100              mov A,[__r4]
 025D 3F00              mvi [__r1],A
 025F 5100              mov A,[__r5]
 0261 3F00              mvi [__r1],A
 0263 5100              mov A,[__r6]
 0265 3F00              mvi [__r1],A
 0267 5100              mov A,[__r7]
 0269 3F00              mvi [__r1],A
 026B                   .dbline 40
 026B           ;          x[j] = tx;
 026B 5224              mov A,[X+36]
 026D 5300              mov [__r0],A
 026F 5225              mov A,[X+37]
 0271 5300              mov [__r1],A
 0273 5226              mov A,[X+38]
 0275 5300              mov [__r2],A
 0277 5227              mov A,[X+39]
 0279 5300              mov [__r3],A
 027B 5002              mov A,2
 027D           X8:
 027D 62D000            mov REG[0xd0],>__r0
 0280 6500              asl [__r3]
 0282 6B00              rlc [__r2]
 0284 6B00              rlc [__r1]
 0286 6B00              rlc [__r0]
 0288 78                dec A
 0289 BFF3              jnz X8
 028B 5100              mov A,[__r3]
 028D 5300              mov [__r1],A
 028F 5100              mov A,[__r2]
 0291 5300              mov [__r0],A
 0293 52F6              mov A,[X-10]
 0295 0400              add [__r1],A
 0297 52F5              mov A,[X-11]
 0299 0C00              adc [__r0],A
 029B 5100              mov A,[__r0]
 029D 60D5              mov REG[0xd5],A
 029F 5240              mov A,[X+64]
 02A1 3F00              mvi [__r1],A
 02A3 5241              mov A,[X+65]
 02A5 3F00              mvi [__r1],A
 02A7 5242              mov A,[X+66]
 02A9 3F00              mvi [__r1],A
 02AB 5243              mov A,[X+67]
 02AD 3F00              mvi [__r1],A
 02AF                   .dbline 41
 02AF           ;          y[j] = ty;
 02AF 5224              mov A,[X+36]
 02B1 5300              mov [__r0],A
 02B3 5225              mov A,[X+37]
 02B5 5300              mov [__r1],A
 02B7 5226              mov A,[X+38]
 02B9 5300              mov [__r2],A
 02BB 5227              mov A,[X+39]
 02BD 5300              mov [__r3],A
 02BF 5002              mov A,2
 02C1           X9:
 02C1 62D000            mov REG[0xd0],>__r0
 02C4 6500              asl [__r3]
 02C6 6B00              rlc [__r2]
 02C8 6B00              rlc [__r1]
 02CA 6B00              rlc [__r0]
 02CC 78                dec A
 02CD BFF3              jnz X9
 02CF 5100              mov A,[__r3]
 02D1 5300              mov [__r1],A
 02D3 5100              mov A,[__r2]
 02D5 5300              mov [__r0],A
 02D7 52F4              mov A,[X-12]
 02D9 0400              add [__r1],A
 02DB 52F3              mov A,[X-13]
 02DD 0C00              adc [__r0],A
 02DF 5100              mov A,[__r0]
 02E1 60D5              mov REG[0xd5],A
 02E3 5244              mov A,[X+68]
 02E5 3F00              mvi [__r1],A
 02E7 5245              mov A,[X+69]
 02E9 3F00              mvi [__r1],A
 02EB 5246              mov A,[X+70]
 02ED 3F00              mvi [__r1],A
 02EF 5247              mov A,[X+71]
 02F1 3F00              mvi [__r1],A
 02F3                   .dbline 42
 02F3           ;       }
 02F3           L10:
 02F3                   .dbline 43
 02F3           ;       k = i2;
 02F3 523C              mov A,[X+60]
 02F5 5428              mov [X+40],A
 02F7 523D              mov A,[X+61]
 02F9 5429              mov [X+41],A
 02FB 523E              mov A,[X+62]
 02FD 542A              mov [X+42],A
 02FF 523F              mov A,[X+63]
 0301 542B              mov [X+43],A
 0303 8019              xjmp L13
 0305           L12:
 0305                   .dbline 44
 0305           ;       while (k <= j) {
 0305                   .dbline 45
 0305           ;          j -= k;
 0305 522B              mov A,[X+43]
 0307 1527              sub [X+39],A
 0309 522A              mov A,[X+42]
 030B 1D26              sbb [X+38],A
 030D 5229              mov A,[X+41]
 030F 1D25              sbb [X+37],A
 0311 5228              mov A,[X+40]
 0313 1D24              sbb [X+36],A
 0315                   .dbline 46
 0315           ;          k >>= 1;
 0315 6928              asr [X+40]
 0317 6F29              rrc [X+41]
 0319 6F2A              rrc [X+42]
 031B 6F2B              rrc [X+43]
 031D                   .dbline 47
 031D           ;       }
 031D           L13:
 031D                   .dbline 44
 031D 5227              mov A,[X+39]
 031F 132B              sub A,[X+43]
 0321 5226              mov A,[X+38]
 0323 1B2A              sbb A,[X+42]
 0325 5225              mov A,[X+37]
 0327 1B29              sbb A,[X+41]
 0329 5228              mov A,[X+40]
 032B 3180              xor A,-128
 032D 62D000            mov REG[0xd0],>__r0
 0330 5300              mov [__rX],A
 0332 5224              mov A,[X+36]
 0334 3180              xor A,-128
 0336 1A00              sbb A,[__rX]
 0338 DFCC              jnc L12
 033A           X10:
 033A                   .dbline 48
 033A           ;       j += k;
 033A 522B              mov A,[X+43]
 033C 0527              add [X+39],A
 033E 522A              mov A,[X+42]
 0340 0D26              adc [X+38],A
 0342 5229              mov A,[X+41]
 0344 0D25              adc [X+37],A
 0346 5228              mov A,[X+40]
 0348 0D24              adc [X+36],A
 034A                   .dbline 49
 034A           ;    }
 034A           L7:
 034A                   .dbline 34
 034A 070301            add [X+3],1
 034D 0F0200            adc [X+2],0
 0350 0F0100            adc [X+1],0
 0353 0F0000            adc [X+0],0
 0356           L9:
 0356                   .dbline 34
 0356 62D000            mov REG[0xd0],>__r0
 0359 521F              mov A,[X+31]
 035B 1101              sub A,1
 035D 5300              mov [__r3],A
 035F 521E              mov A,[X+30]
 0361 1900              sbb A,0
 0363 5300              mov [__r2],A
 0365 521D              mov A,[X+29]
 0367 1900              sbb A,0
 0369 5300              mov [__r1],A
 036B 521C              mov A,[X+28]
 036D 1900              sbb A,0
 036F 5300              mov [__r0],A
 0371 5203              mov A,[X+3]
 0373 1200              sub A,[__r3]
 0375 5202              mov A,[X+2]
 0377 1A00              sbb A,[__r2]
 0379 5201              mov A,[X+1]
 037B 1A00              sbb A,[__r1]
 037D 5100              mov A,[__r0]
 037F 3180              xor A,-128
 0381 5300              mov [__rX],A
 0383 5200              mov A,[X+0]
 0385 3180              xor A,-128
 0387 1A00              sbb A,[__rX]
 0389 CD29              jc L6
 038B           X11:
 038B                   .dbline 52
 038B           ; 
 038B           ;    /* Compute the FFT */
 038B           ;    c1 = -1.0; 
 038B 562CBF            mov [X+44],-65
 038E 562D80            mov [X+45],-128
 0391 562E00            mov [X+46],0
 0394 562F00            mov [X+47],0
 0397                   .dbline 53
 0397           ;    c2 = 0.0;
 0397 563000            mov [X+48],0
 039A 563100            mov [X+49],0
 039D 563200            mov [X+50],0
 03A0 563300            mov [X+51],0
 03A3                   .dbline 54
 03A3           ;    l2 = 1;
 03A3 562000            mov [X+32],0
 03A6 562100            mov [X+33],0
 03A9 562200            mov [X+34],0
 03AC 562301            mov [X+35],1
 03AF                   .dbline 55
 03AF           ;    for (l=0;l<m;l++) {
 03AF 563800            mov [X+56],0
 03B2 563900            mov [X+57],0
 03B5 563A00            mov [X+58],0
 03B8 563B00            mov [X+59],0
 03BB 86E2              xjmp L18
 03BD           L15:
 03BD                   .dbline 55
 03BD                   .dbline 56
 03BD           ;       l1 = l2;
 03BD 5220              mov A,[X+32]
 03BF 5418              mov [X+24],A
 03C1 5221              mov A,[X+33]
 03C3 5419              mov [X+25],A
 03C5 5222              mov A,[X+34]
 03C7 541A              mov [X+26],A
 03C9 5223              mov A,[X+35]
 03CB 541B              mov [X+27],A
 03CD                   .dbline 57
 03CD           ;       l2 <<= 1;
 03CD 6623              asl [X+35]
 03CF 6C22              rlc [X+34]
 03D1 6C21              rlc [X+33]
 03D3 6C20              rlc [X+32]
 03D5                   .dbline 58
 03D5           ;       u1 = 1.0; 
 03D5 56103F            mov [X+16],63
 03D8 561180            mov [X+17],-128
 03DB 561200            mov [X+18],0
 03DE 561300            mov [X+19],0
 03E1                   .dbline 59
 03E1           ;       u2 = 0.0;
 03E1 561400            mov [X+20],0
 03E4 561500            mov [X+21],0
 03E7 561600            mov [X+22],0
 03EA 561700            mov [X+23],0
 03ED                   .dbline 60
 03ED           ;       for (j=0;j<l1;j++) {
 03ED 562400            mov [X+36],0
 03F0 562500            mov [X+37],0
 03F3 562600            mov [X+38],0
 03F6 562700            mov [X+39],0
 03F9 8590              xjmp L22
 03FB           L19:
 03FB                   .dbline 60
 03FB                   .dbline 61
 03FB           ;          for (i=j;i<n;i+=l2) {
 03FB 5224              mov A,[X+36]
 03FD 5400              mov [X+0],A
 03FF 5225              mov A,[X+37]
 0401 5401              mov [X+1],A
 0403 5226              mov A,[X+38]
 0405 5402              mov [X+2],A
 0407 5227              mov A,[X+39]
 0409 5403              mov [X+3],A
 040B 844C              xjmp L26
 040D           L23:
 040D                   .dbline 61
 040D                   .dbline 62
 040D           ;             i1 = i + l1;
 040D 5203              mov A,[X+3]
 040F 031B              add A,[X+27]
 0411 5407              mov [X+7],A
 0413 5202              mov A,[X+2]
 0415 0B1A              adc A,[X+26]
 0417 5406              mov [X+6],A
 0419 5201              mov A,[X+1]
 041B 0B19              adc A,[X+25]
 041D 5405              mov [X+5],A
 041F 5200              mov A,[X+0]
 0421 0B18              adc A,[X+24]
 0423 5404              mov [X+4],A
 0425                   .dbline 63
 0425           ;             t1 = u1 * x[i1] - u2 * y[i1];
 0425 62D000            mov REG[0xd0],>__r0
 0428 5204              mov A,[X+4]
 042A 5300              mov [__r0],A
 042C 5205              mov A,[X+5]
 042E 5300              mov [__r1],A
 0430 5206              mov A,[X+6]
 0432 5300              mov [__r2],A
 0434 5207              mov A,[X+7]
 0436 5300              mov [__r3],A
 0438 5002              mov A,2
 043A           X12:
 043A 62D000            mov REG[0xd0],>__r0
 043D 6500              asl [__r3]
 043F 6B00              rlc [__r2]
 0441 6B00              rlc [__r1]
 0443 6B00              rlc [__r0]
 0445 78                dec A
 0446 BFF3              jnz X12
 0448 5100              mov A,[__r3]
 044A 5300              mov [__r1],A
 044C 5100              mov A,[__r2]
 044E 5300              mov [__r0],A
 0450 5100              mov A,[__r1]
 0452 03F4              add A,[X-12]
 0454 5300              mov [__r3],A
 0456 5100              mov A,[__r0]
 0458 0BF3              adc A,[X-13]
 045A 60D4              mov REG[0xd4],A
 045C 3E00              mvi A,[__r3]
 045E 5300              mov [__r4],A
 0460 3E00              mvi A,[__r3]
 0462 5300              mov [__r5],A
 0464 3E00              mvi A,[__r3]
 0466 5300              mov [__r6],A
 0468 3E00              mvi A,[__r3]
 046A 5300              mov [__r7],A
 046C 5100              mov A,[__r4]
 046E 08                push A
 046F 5100              mov A,[__r5]
 0471 08                push A
 0472 5100              mov A,[__r6]
 0474 08                push A
 0475 5100              mov A,[__r7]
 0477 08                push A
 0478 5214              mov A,[X+20]
 047A 08                push A
 047B 5215              mov A,[X+21]
 047D 08                push A
 047E 5216              mov A,[X+22]
 0480 08                push A
 0481 5217              mov A,[X+23]
 0483 08                push A
 0484 7C0000            xcall __fpmul
 0487 18                pop A
 0488 5300              mov [__r7],A
 048A 18                pop A
 048B 5300              mov [__r6],A
 048D 18                pop A
 048E 5300              mov [__r5],A
 0490 18                pop A
 0491 5300              mov [__r4],A
 0493 38FC              add SP,-4
 0495 52F6              mov A,[X-10]
 0497 0400              add [__r1],A
 0499 52F5              mov A,[X-11]
 049B 0C00              adc [__r0],A
 049D 5100              mov A,[__r0]
 049F 60D4              mov REG[0xd4],A
 04A1 3E00              mvi A,[__r1]
 04A3 5300              mov [__r8],A
 04A5 3E00              mvi A,[__r1]
 04A7 5300              mov [__r9],A
 04A9 3E00              mvi A,[__r1]
 04AB 5300              mov [__r10],A
 04AD 3E00              mvi A,[__r1]
 04AF 5300              mov [__r11],A
 04B1 5100              mov A,[__r8]
 04B3 08                push A
 04B4 5100              mov A,[__r9]
 04B6 08                push A
 04B7 5100              mov A,[__r10]
 04B9 08                push A
 04BA 5100              mov A,[__r11]
 04BC 08                push A
 04BD 5210              mov A,[X+16]
 04BF 08                push A
 04C0 5211              mov A,[X+17]
 04C2 08                push A
 04C3 5212              mov A,[X+18]
 04C5 08                push A
 04C6 5213              mov A,[X+19]
 04C8 08                push A
 04C9 7C0000            xcall __fpmul
 04CC 18                pop A
 04CD 5300              mov [__r3],A
 04CF 18                pop A
 04D0 5300              mov [__r2],A
 04D2 18                pop A
 04D3 5300              mov [__r1],A
 04D5 18                pop A
 04D6 5300              mov [__r0],A
 04D8 38FC              add SP,-4
 04DA 5100              mov A,[__r4]
 04DC 08                push A
 04DD 5100              mov A,[__r5]
 04DF 08                push A
 04E0 5100              mov A,[__r6]
 04E2 08                push A
 04E3 5100              mov A,[__r7]
 04E5 08                push A
 04E6 5100              mov A,[__r0]
 04E8 08                push A
 04E9 5100              mov A,[__r1]
 04EB 08                push A
 04EC 5100              mov A,[__r2]
 04EE 08                push A
 04EF 5100              mov A,[__r3]
 04F1 08                push A
 04F2 7C0000            xcall __fpsub
 04F5 18                pop A
 04F6 540B              mov [X+11],A
 04F8 18                pop A
 04F9 540A              mov [X+10],A
 04FB 18                pop A
 04FC 5409              mov [X+9],A
 04FE 18                pop A
 04FF 5408              mov [X+8],A
 0501 38FC              add SP,-4
 0503                   .dbline 64
 0503           ;             t2 = u1 * y[i1] + u2 * x[i1];
 0503 5204              mov A,[X+4]
 0505 5300              mov [__r0],A
 0507 5205              mov A,[X+5]
 0509 5300              mov [__r1],A
 050B 5206              mov A,[X+6]
 050D 5300              mov [__r2],A
 050F 5207              mov A,[X+7]
 0511 5300              mov [__r3],A
 0513 5002              mov A,2
 0515           X13:
 0515 62D000            mov REG[0xd0],>__r0
 0518 6500              asl [__r3]
 051A 6B00              rlc [__r2]
 051C 6B00              rlc [__r1]
 051E 6B00              rlc [__r0]
 0520 78                dec A
 0521 BFF3              jnz X13
 0523 5100              mov A,[__r3]
 0525 5300              mov [__r1],A
 0527 5100              mov A,[__r2]
 0529 5300              mov [__r0],A
 052B 5100              mov A,[__r1]
 052D 03F6              add A,[X-10]
 052F 5300              mov [__r3],A
 0531 5100              mov A,[__r0]
 0533 0BF5              adc A,[X-11]
 0535 60D4              mov REG[0xd4],A
 0537 3E00              mvi A,[__r3]
 0539 5300              mov [__r4],A
 053B 3E00              mvi A,[__r3]
 053D 5300              mov [__r5],A
 053F 3E00              mvi A,[__r3]
 0541 5300              mov [__r6],A
 0543 3E00              mvi A,[__r3]
 0545 5300              mov [__r7],A
 0547 5100              mov A,[__r4]
 0549 08                push A
 054A 5100              mov A,[__r5]
 054C 08                push A
 054D 5100              mov A,[__r6]
 054F 08                push A
 0550 5100              mov A,[__r7]
 0552 08                push A
 0553 5214              mov A,[X+20]
 0555 08                push A
 0556 5215              mov A,[X+21]
 0558 08                push A
 0559 5216              mov A,[X+22]
 055B 08                push A
 055C 5217              mov A,[X+23]
 055E 08                push A
 055F 7C0000            xcall __fpmul
 0562 18                pop A
 0563 5300              mov [__r7],A
 0565 18                pop A
 0566 5300              mov [__r6],A
 0568 18                pop A
 0569 5300              mov [__r5],A
 056B 18                pop A
 056C 5300              mov [__r4],A
 056E 38FC              add SP,-4
 0570 52F4              mov A,[X-12]
 0572 0400              add [__r1],A
 0574 52F3              mov A,[X-13]
 0576 0C00              adc [__r0],A
 0578 5100              mov A,[__r0]
 057A 60D4              mov REG[0xd4],A
 057C 3E00              mvi A,[__r1]
 057E 5300              mov [__r8],A
 0580 3E00              mvi A,[__r1]
 0582 5300              mov [__r9],A
 0584 3E00              mvi A,[__r1]
 0586 5300              mov [__r10],A
 0588 3E00              mvi A,[__r1]
 058A 5300              mov [__r11],A
 058C 5100              mov A,[__r8]
 058E 08                push A
 058F 5100              mov A,[__r9]
 0591 08                push A
 0592 5100              mov A,[__r10]
 0594 08                push A
 0595 5100              mov A,[__r11]
 0597 08                push A
 0598 5210              mov A,[X+16]
 059A 08                push A
 059B 5211              mov A,[X+17]
 059D 08                push A
 059E 5212              mov A,[X+18]
 05A0 08                push A
 05A1 5213              mov A,[X+19]
 05A3 08                push A
 05A4 7C0000            xcall __fpmul
 05A7 18                pop A
 05A8 5300              mov [__r3],A
 05AA 18                pop A
 05AB 5300              mov [__r2],A
 05AD 18                pop A
 05AE 5300              mov [__r1],A
 05B0 18                pop A
 05B1 5300              mov [__r0],A
 05B3 38FC              add SP,-4
 05B5 5100              mov A,[__r4]
 05B7 08                push A
 05B8 5100              mov A,[__r5]
 05BA 08                push A
 05BB 5100              mov A,[__r6]
 05BD 08                push A
 05BE 5100              mov A,[__r7]
 05C0 08                push A
 05C1 5100              mov A,[__r0]
 05C3 08                push A
 05C4 5100              mov A,[__r1]
 05C6 08                push A
 05C7 5100              mov A,[__r2]
 05C9 08                push A
 05CA 5100              mov A,[__r3]
 05CC 08                push A
 05CD 7C0000            xcall __fpadd
 05D0 18                pop A
 05D1 540F              mov [X+15],A
 05D3 18                pop A
 05D4 540E              mov [X+14],A
 05D6 18                pop A
 05D7 540D              mov [X+13],A
 05D9 18                pop A
 05DA 540C              mov [X+12],A
 05DC 38FC              add SP,-4
 05DE                   .dbline 65
 05DE           ;             x[i1] = x[i] - t1; 
 05DE 5200              mov A,[X+0]
 05E0 5300              mov [__r0],A
 05E2 5201              mov A,[X+1]
 05E4 5300              mov [__r1],A
 05E6 5202              mov A,[X+2]
 05E8 5300              mov [__r2],A
 05EA 5203              mov A,[X+3]
 05EC 5300              mov [__r3],A
 05EE 5002              mov A,2
 05F0           X14:
 05F0 62D000            mov REG[0xd0],>__r0
 05F3 6500              asl [__r3]
 05F5 6B00              rlc [__r2]
 05F7 6B00              rlc [__r1]
 05F9 6B00              rlc [__r0]
 05FB 78                dec A
 05FC BFF3              jnz X14
 05FE 5100              mov A,[__r3]
 0600 5300              mov [__r1],A
 0602 5100              mov A,[__r2]
 0604 5300              mov [__r0],A
 0606 52F6              mov A,[X-10]
 0608 0400              add [__r1],A
 060A 52F5              mov A,[X-11]
 060C 0C00              adc [__r0],A
 060E 5100              mov A,[__r0]
 0610 60D4              mov REG[0xd4],A
 0612 3E00              mvi A,[__r1]
 0614 5300              mov [__r4],A
 0616 3E00              mvi A,[__r1]
 0618 5300              mov [__r5],A
 061A 3E00              mvi A,[__r1]
 061C 5300              mov [__r6],A
 061E 3E00              mvi A,[__r1]
 0620 5300              mov [__r7],A
 0622 5208              mov A,[X+8]
 0624 08                push A
 0625 5209              mov A,[X+9]
 0627 08                push A
 0628 520A              mov A,[X+10]
 062A 08                push A
 062B 520B              mov A,[X+11]
 062D 08                push A
 062E 5100              mov A,[__r4]
 0630 08                push A
 0631 5100              mov A,[__r5]
 0633 08                push A
 0634 5100              mov A,[__r6]
 0636 08                push A
 0637 5100              mov A,[__r7]
 0639 08                push A
 063A 7C0000            xcall __fpsub
 063D 18                pop A
 063E 5300              mov [__r3],A
 0640 18                pop A
 0641 5300              mov [__r2],A
 0643 18                pop A
 0644 5300              mov [__r1],A
 0646 18                pop A
 0647 5300              mov [__r0],A
 0649 38FC              add SP,-4
 064B 5204              mov A,[X+4]
 064D 5300              mov [__r4],A
 064F 5205              mov A,[X+5]
 0651 5300              mov [__r5],A
 0653 5206              mov A,[X+6]
 0655 5300              mov [__r6],A
 0657 5207              mov A,[X+7]
 0659 5300              mov [__r7],A
 065B 5002              mov A,2
 065D           X15:
 065D 62D000            mov REG[0xd0],>__r0
 0660 6500              asl [__r7]
 0662 6B00              rlc [__r6]
 0664 6B00              rlc [__r5]
 0666 6B00              rlc [__r4]
 0668 78                dec A
 0669 BFF3              jnz X15
 066B 5100              mov A,[__r7]
 066D 5300              mov [__r5],A
 066F 5100              mov A,[__r6]
 0671 5300              mov [__r4],A
 0673 52F6              mov A,[X-10]
 0675 0400              add [__r5],A
 0677 52F5              mov A,[X-11]
 0679 0C00              adc [__r4],A
 067B 5100              mov A,[__r4]
 067D 60D5              mov REG[0xd5],A
 067F 5100              mov A,[__r0]
 0681 3F00              mvi [__r5],A
 0683 5100              mov A,[__r1]
 0685 3F00              mvi [__r5],A
 0687 5100              mov A,[__r2]
 0689 3F00              mvi [__r5],A
 068B 5100              mov A,[__r3]
 068D 3F00              mvi [__r5],A
 068F                   .dbline 66
 068F           ;             y[i1] = y[i] - t2;
 068F 5200              mov A,[X+0]
 0691 5300              mov [__r0],A
 0693 5201              mov A,[X+1]
 0695 5300              mov [__r1],A
 0697 5202              mov A,[X+2]
 0699 5300              mov [__r2],A
 069B 5203              mov A,[X+3]
 069D 5300              mov [__r3],A
 069F 5002              mov A,2
 06A1           X16:
 06A1 62D000            mov REG[0xd0],>__r0
 06A4 6500              asl [__r3]
 06A6 6B00              rlc [__r2]
 06A8 6B00              rlc [__r1]
 06AA 6B00              rlc [__r0]
 06AC 78                dec A
 06AD BFF3              jnz X16
 06AF 5100              mov A,[__r3]
 06B1 5300              mov [__r1],A
 06B3 5100              mov A,[__r2]
 06B5 5300              mov [__r0],A
 06B7 52F4              mov A,[X-12]
 06B9 0400              add [__r1],A
 06BB 52F3              mov A,[X-13]
 06BD 0C00              adc [__r0],A
 06BF 5100              mov A,[__r0]
 06C1 60D4              mov REG[0xd4],A
 06C3 3E00              mvi A,[__r1]
 06C5 5300              mov [__r4],A
 06C7 3E00              mvi A,[__r1]
 06C9 5300              mov [__r5],A
 06CB 3E00              mvi A,[__r1]
 06CD 5300              mov [__r6],A
 06CF 3E00              mvi A,[__r1]
 06D1 5300              mov [__r7],A
 06D3 520C              mov A,[X+12]
 06D5 08                push A
 06D6 520D              mov A,[X+13]
 06D8 08                push A
 06D9 520E              mov A,[X+14]
 06DB 08                push A
 06DC 520F              mov A,[X+15]
 06DE 08                push A
 06DF 5100              mov A,[__r4]
 06E1 08                push A
 06E2 5100              mov A,[__r5]
 06E4 08                push A
 06E5 5100              mov A,[__r6]
 06E7 08                push A
 06E8 5100              mov A,[__r7]
 06EA 08                push A
 06EB 7C0000            xcall __fpsub
 06EE 18                pop A
 06EF 5300              mov [__r3],A
 06F1 18                pop A
 06F2 5300              mov [__r2],A
 06F4 18                pop A
 06F5 5300              mov [__r1],A
 06F7 18                pop A
 06F8 5300              mov [__r0],A
 06FA 38FC              add SP,-4
 06FC 5204              mov A,[X+4]
 06FE 5300              mov [__r4],A
 0700 5205              mov A,[X+5]
 0702 5300              mov [__r5],A
 0704 5206              mov A,[X+6]
 0706 5300              mov [__r6],A
 0708 5207              mov A,[X+7]
 070A 5300              mov [__r7],A
 070C 5002              mov A,2
 070E           X17:
 070E 62D000            mov REG[0xd0],>__r0
 0711 6500              asl [__r7]
 0713 6B00              rlc [__r6]
 0715 6B00              rlc [__r5]
 0717 6B00              rlc [__r4]
 0719 78                dec A
 071A BFF3              jnz X17
 071C 5100              mov A,[__r7]
 071E 5300              mov [__r5],A
 0720 5100              mov A,[__r6]
 0722 5300              mov [__r4],A
 0724 52F4              mov A,[X-12]
 0726 0400              add [__r5],A
 0728 52F3              mov A,[X-13]
 072A 0C00              adc [__r4],A
 072C 5100              mov A,[__r4]
 072E 60D5              mov REG[0xd5],A
 0730 5100              mov A,[__r0]
 0732 3F00              mvi [__r5],A
 0734 5100              mov A,[__r1]
 0736 3F00              mvi [__r5],A
 0738 5100              mov A,[__r2]
 073A 3F00              mvi [__r5],A
 073C 5100              mov A,[__r3]
 073E 3F00              mvi [__r5],A
 0740                   .dbline 67
 0740           ;             x[i] += t1;
 0740 5200              mov A,[X+0]
 0742 5300              mov [__r0],A
 0744 5201              mov A,[X+1]
 0746 5300              mov [__r1],A
 0748 5202              mov A,[X+2]
 074A 5300              mov [__r2],A
 074C 5203              mov A,[X+3]
 074E 5300              mov [__r3],A
 0750 5002              mov A,2
 0752           X18:
 0752 62D000            mov REG[0xd0],>__r0
 0755 6500              asl [__r3]
 0757 6B00              rlc [__r2]
 0759 6B00              rlc [__r1]
 075B 6B00              rlc [__r0]
 075D 78                dec A
 075E BFF3              jnz X18
 0760 5100              mov A,[__r3]
 0762 5300              mov [__r1],A
 0764 5100              mov A,[__r2]
 0766 5300              mov [__r0],A
 0768 52F6              mov A,[X-10]
 076A 0400              add [__r1],A
 076C 52F5              mov A,[X-11]
 076E 0C00              adc [__r0],A
 0770 5100              mov A,[__r0]
 0772 60D4              mov REG[0xd4],A
 0774 3E00              mvi A,[__r1]
 0776 5300              mov [__r4],A
 0778 3E00              mvi A,[__r1]
 077A 5300              mov [__r5],A
 077C 3E00              mvi A,[__r1]
 077E 5300              mov [__r6],A
 0780 3E00              mvi A,[__r1]
 0782 160004            sub [__r1],4
 0785 5300              mov [__r7],A
 0787 5208              mov A,[X+8]
 0789 08                push A
 078A 5209              mov A,[X+9]
 078C 08                push A
 078D 520A              mov A,[X+10]
 078F 08                push A
 0790 520B              mov A,[X+11]
 0792 08                push A
 0793 5100              mov A,[__r4]
 0795 08                push A
 0796 5100              mov A,[__r5]
 0798 08                push A
 0799 5100              mov A,[__r6]
 079B 08                push A
 079C 5100              mov A,[__r7]
 079E 08                push A
 079F 7C0000            xcall __fpadd
 07A2 18                pop A
 07A3 5300              mov [__r7],A
 07A5 18                pop A
 07A6 5300              mov [__r6],A
 07A8 18                pop A
 07A9 5300              mov [__r5],A
 07AB 18                pop A
 07AC 5300              mov [__r4],A
 07AE 38FC              add SP,-4
 07B0 5100              mov A,[__r0]
 07B2 60D5              mov REG[0xd5],A
 07B4 5100              mov A,[__r4]
 07B6 3F00              mvi [__r1],A
 07B8 5100              mov A,[__r5]
 07BA 3F00              mvi [__r1],A
 07BC 5100              mov A,[__r6]
 07BE 3F00              mvi [__r1],A
 07C0 5100              mov A,[__r7]
 07C2 3F00              mvi [__r1],A
 07C4                   .dbline 68
 07C4           ;             y[i] += t2;
 07C4 5200              mov A,[X+0]
 07C6 5300              mov [__r0],A
 07C8 5201              mov A,[X+1]
 07CA 5300              mov [__r1],A
 07CC 5202              mov A,[X+2]
 07CE 5300              mov [__r2],A
 07D0 5203              mov A,[X+3]
 07D2 5300              mov [__r3],A
 07D4 5002              mov A,2
 07D6           X19:
 07D6 62D000            mov REG[0xd0],>__r0
 07D9 6500              asl [__r3]
 07DB 6B00              rlc [__r2]
 07DD 6B00              rlc [__r1]
 07DF 6B00              rlc [__r0]
 07E1 78                dec A
 07E2 BFF3              jnz X19
 07E4 5100              mov A,[__r3]
 07E6 5300              mov [__r1],A
 07E8 5100              mov A,[__r2]
 07EA 5300              mov [__r0],A
 07EC 52F4              mov A,[X-12]
 07EE 0400              add [__r1],A
 07F0 52F3              mov A,[X-13]
 07F2 0C00              adc [__r0],A
 07F4 5100              mov A,[__r0]
 07F6 60D4              mov REG[0xd4],A
 07F8 3E00              mvi A,[__r1]
 07FA 5300              mov [__r4],A
 07FC 3E00              mvi A,[__r1]
 07FE 5300              mov [__r5],A
 0800 3E00              mvi A,[__r1]
 0802 5300              mov [__r6],A
 0804 3E00              mvi A,[__r1]
 0806 160004            sub [__r1],4
 0809 5300              mov [__r7],A
 080B 520C              mov A,[X+12]
 080D 08                push A
 080E 520D              mov A,[X+13]
 0810 08                push A
 0811 520E              mov A,[X+14]
 0813 08                push A
 0814 520F              mov A,[X+15]
 0816 08                push A
 0817 5100              mov A,[__r4]
 0819 08                push A
 081A 5100              mov A,[__r5]
 081C 08                push A
 081D 5100              mov A,[__r6]
 081F 08                push A
 0820 5100              mov A,[__r7]
 0822 08                push A
 0823 7C0000            xcall __fpadd
 0826 18                pop A
 0827 5300              mov [__r7],A
 0829 18                pop A
 082A 5300              mov [__r6],A
 082C 18                pop A
 082D 5300              mov [__r5],A
 082F 18                pop A
 0830 5300              mov [__r4],A
 0832 38FC              add SP,-4
 0834 5100              mov A,[__r0]
 0836 60D5              mov REG[0xd5],A
 0838 5100              mov A,[__r4]
 083A 3F00              mvi [__r1],A
 083C 5100              mov A,[__r5]
 083E 3F00              mvi [__r1],A
 0840 5100              mov A,[__r6]
 0842 3F00              mvi [__r1],A
 0844 5100              mov A,[__r7]
 0846 3F00              mvi [__r1],A
 0848                   .dbline 69
 0848           ;          }
 0848           L24:
 0848                   .dbline 61
 0848 5223              mov A,[X+35]
 084A 0503              add [X+3],A
 084C 5222              mov A,[X+34]
 084E 0D02              adc [X+2],A
 0850 5221              mov A,[X+33]
 0852 0D01              adc [X+1],A
 0854 5220              mov A,[X+32]
 0856 0D00              adc [X+0],A
 0858           L26:
 0858                   .dbline 61
 0858 5203              mov A,[X+3]
 085A 131F              sub A,[X+31]
 085C 5202              mov A,[X+2]
 085E 1B1E              sbb A,[X+30]
 0860 5201              mov A,[X+1]
 0862 1B1D              sbb A,[X+29]
 0864 521C              mov A,[X+28]
 0866 3180              xor A,-128
 0868 62D000            mov REG[0xd0],>__r0
 086B 5300              mov [__rX],A
 086D 5200              mov A,[X+0]
 086F 3180              xor A,-128
 0871 1A00              sbb A,[__rX]
 0873 CB99              jc L23
 0875           X20:
 0875                   .dbline 70
 0875           ;          z =  u1 * c1 - u2 * c2;
 0875 62D000            mov REG[0xd0],>__r0
 0878 5230              mov A,[X+48]
 087A 08                push A
 087B 5231              mov A,[X+49]
 087D 08                push A
 087E 5232              mov A,[X+50]
 0880 08                push A
 0881 5233              mov A,[X+51]
 0883 08                push A
 0884 5214              mov A,[X+20]
 0886 08                push A
 0887 5215              mov A,[X+21]
 0889 08                push A
 088A 5216              mov A,[X+22]
 088C 08                push A
 088D 5217              mov A,[X+23]
 088F 08                push A
 0890 7C0000            xcall __fpmul
 0893 18                pop A
 0894 5300              mov [__r3],A
 0896 18                pop A
 0897 5300              mov [__r2],A
 0899 18                pop A
 089A 5300              mov [__r1],A
 089C 18                pop A
 089D 5300              mov [__r0],A
 089F 38FC              add SP,-4
 08A1 522C              mov A,[X+44]
 08A3 08                push A
 08A4 522D              mov A,[X+45]
 08A6 08                push A
 08A7 522E              mov A,[X+46]
 08A9 08                push A
 08AA 522F              mov A,[X+47]
 08AC 08                push A
 08AD 5210              mov A,[X+16]
 08AF 08                push A
 08B0 5211              mov A,[X+17]
 08B2 08                push A
 08B3 5212              mov A,[X+18]
 08B5 08                push A
 08B6 5213              mov A,[X+19]
 08B8 08                push A
 08B9 7C0000            xcall __fpmul
 08BC 18                pop A
 08BD 5300              mov [__r7],A
 08BF 18                pop A
 08C0 5300              mov [__r6],A
 08C2 18                pop A
 08C3 5300              mov [__r5],A
 08C5 18                pop A
 08C6 5300              mov [__r4],A
 08C8 38FC              add SP,-4
 08CA 5100              mov A,[__r0]
 08CC 08                push A
 08CD 5100              mov A,[__r1]
 08CF 08                push A
 08D0 5100              mov A,[__r2]
 08D2 08                push A
 08D3 5100              mov A,[__r3]
 08D5 08                push A
 08D6 5100              mov A,[__r4]
 08D8 08                push A
 08D9 5100              mov A,[__r5]
 08DB 08                push A
 08DC 5100              mov A,[__r6]
 08DE 08                push A
 08DF 5100              mov A,[__r7]
 08E1 08                push A
 08E2 7C0000            xcall __fpsub
 08E5 18                pop A
 08E6 5437              mov [X+55],A
 08E8 18                pop A
 08E9 5436              mov [X+54],A
 08EB 18                pop A
 08EC 5435              mov [X+53],A
 08EE 18                pop A
 08EF 5434              mov [X+52],A
 08F1 38FC              add SP,-4
 08F3                   .dbline 71
 08F3           ;          u2 = u1 * c2 + u2 * c1;
 08F3 522C              mov A,[X+44]
 08F5 08                push A
 08F6 522D              mov A,[X+45]
 08F8 08                push A
 08F9 522E              mov A,[X+46]
 08FB 08                push A
 08FC 522F              mov A,[X+47]
 08FE 08                push A
 08FF 5214              mov A,[X+20]
 0901 08                push A
 0902 5215              mov A,[X+21]
 0904 08                push A
 0905 5216              mov A,[X+22]
 0907 08                push A
 0908 5217              mov A,[X+23]
 090A 08                push A
 090B 7C0000            xcall __fpmul
 090E 18                pop A
 090F 5300              mov [__r3],A
 0911 18                pop A
 0912 5300              mov [__r2],A
 0914 18                pop A
 0915 5300              mov [__r1],A
 0917 18                pop A
 0918 5300              mov [__r0],A
 091A 38FC              add SP,-4
 091C 5230              mov A,[X+48]
 091E 08                push A
 091F 5231              mov A,[X+49]
 0921 08                push A
 0922 5232              mov A,[X+50]
 0924 08                push A
 0925 5233              mov A,[X+51]
 0927 08                push A
 0928 5210              mov A,[X+16]
 092A 08                push A
 092B 5211              mov A,[X+17]
 092D 08                push A
 092E 5212              mov A,[X+18]
 0930 08                push A
 0931 5213              mov A,[X+19]
 0933 08                push A
 0934 7C0000            xcall __fpmul
 0937 18                pop A
 0938 5300              mov [__r7],A
 093A 18                pop A
 093B 5300              mov [__r6],A
 093D 18                pop A
 093E 5300              mov [__r5],A
 0940 18                pop A
 0941 5300              mov [__r4],A
 0943 38FC              add SP,-4
 0945 5100              mov A,[__r0]
 0947 08                push A
 0948 5100              mov A,[__r1]
 094A 08                push A
 094B 5100              mov A,[__r2]
 094D 08                push A
 094E 5100              mov A,[__r3]
 0950 08                push A
 0951 5100              mov A,[__r4]
 0953 08                push A
 0954 5100              mov A,[__r5]
 0956 08                push A
 0957 5100              mov A,[__r6]
 0959 08                push A
 095A 5100              mov A,[__r7]
 095C 08                push A
 095D 7C0000            xcall __fpadd
 0960 18                pop A
 0961 5417              mov [X+23],A
 0963 18                pop A
 0964 5416              mov [X+22],A
 0966 18                pop A
 0967 5415              mov [X+21],A
 0969 18                pop A
 096A 5414              mov [X+20],A
 096C 38FC              add SP,-4
 096E                   .dbline 72
 096E           ;          u1 = z;
 096E 5234              mov A,[X+52]
 0970 5410              mov [X+16],A
 0972 5235              mov A,[X+53]
 0974 5411              mov [X+17],A
 0976 5236              mov A,[X+54]
 0978 5412              mov [X+18],A
 097A 5237              mov A,[X+55]
 097C 5413              mov [X+19],A
 097E                   .dbline 73
 097E           ;       }
 097E           L20:
 097E                   .dbline 60
 097E 072701            add [X+39],1
 0981 0F2600            adc [X+38],0
 0984 0F2500            adc [X+37],0
 0987 0F2400            adc [X+36],0
 098A           L22:
 098A                   .dbline 60
 098A 5227              mov A,[X+39]
 098C 131B              sub A,[X+27]
 098E 5226              mov A,[X+38]
 0990 1B1A              sbb A,[X+26]
 0992 5225              mov A,[X+37]
 0994 1B19              sbb A,[X+25]
 0996 5218              mov A,[X+24]
 0998 3180              xor A,-128
 099A 62D000            mov REG[0xd0],>__r0
 099D 5300              mov [__rX],A
 099F 5224              mov A,[X+36]
 09A1 3180              xor A,-128
 09A3 1A00              sbb A,[__rX]
 09A5 CA55              jc L19
 09A7           X21:
 09A7                   .dbline 74
 09A7           ;       c2 = sqrt((1.0 - c1) / 2.0);
 09A7 62D000            mov REG[0xd0],>__r0
 09AA 522C              mov A,[X+44]
 09AC 08                push A
 09AD 522D              mov A,[X+45]
 09AF 08                push A
 09B0 522E              mov A,[X+46]
 09B2 08                push A
 09B3 522F              mov A,[X+47]
 09B5 08                push A
 09B6 503F              mov A,63
 09B8 08                push A
 09B9 5080              mov A,-128
 09BB 08                push A
 09BC 5000              mov A,0
 09BE 08                push A
 09BF 08                push A
 09C0 7C0000            xcall __fpsub
 09C3 18                pop A
 09C4 5300              mov [__r3],A
 09C6 18                pop A
 09C7 5300              mov [__r2],A
 09C9 18                pop A
 09CA 5300              mov [__r1],A
 09CC 18                pop A
 09CD 5300              mov [__r0],A
 09CF 38FC              add SP,-4
 09D1 5040              mov A,64
 09D3 08                push A
 09D4 5000              mov A,0
 09D6 08                push A
 09D7 08                push A
 09D8 08                push A
 09D9 5100              mov A,[__r0]
 09DB 08                push A
 09DC 5100              mov A,[__r1]
 09DE 08                push A
 09DF 5100              mov A,[__r2]
 09E1 08                push A
 09E2 5100              mov A,[__r3]
 09E4 08                push A
 09E5 7C0000            xcall __fpdiv
 09E8 18                pop A
 09E9 5300              mov [__r3],A
 09EB 18                pop A
 09EC 5300              mov [__r2],A
 09EE 18                pop A
 09EF 5300              mov [__r1],A
 09F1 18                pop A
 09F2 38FC              add SP,-4
 09F4 08                push A
 09F5 5100              mov A,[__r1]
 09F7 08                push A
 09F8 5100              mov A,[__r2]
 09FA 08                push A
 09FB 5100              mov A,[__r3]
 09FD 08                push A
 09FE 7C0000            xcall _sqrtf
 0A01 38FC              add SP,-4
 0A03 62D000            mov REG[0xd0],>__r0
 0A06 5100              mov A,[__r0]
 0A08 5430              mov [X+48],A
 0A0A 5100              mov A,[__r1]
 0A0C 5431              mov [X+49],A
 0A0E 5100              mov A,[__r2]
 0A10 5432              mov [X+50],A
 0A12 5100              mov A,[__r3]
 0A14 5433              mov [X+51],A
 0A16                   .dbline 75
 0A16           ;       if (dir == 1) 
 0A16 3DFB00            cmp [X-5],0
 0A19 B009              jnz L27
 0A1B 3DFC01            cmp [X-4],1
 0A1E B004              jnz L27
 0A20           X22:
 0A20                   .dbline 76
 0A20           ;          c2 = -c2;
 0A20 373080            xor [X+48],-128
 0A23           L27:
 0A23                   .dbline 77
 0A23           ;       c1 = sqrt((1.0 + c1) / 2.0);
 0A23 62D000            mov REG[0xd0],>__r0
 0A26 503F              mov A,63
 0A28 08                push A
 0A29 5080              mov A,-128
 0A2B 08                push A
 0A2C 5000              mov A,0
 0A2E 08                push A
 0A2F 08                push A
 0A30 522C              mov A,[X+44]
 0A32 08                push A
 0A33 522D              mov A,[X+45]
 0A35 08                push A
 0A36 522E              mov A,[X+46]
 0A38 08                push A
 0A39 522F              mov A,[X+47]
 0A3B 08                push A
 0A3C 7C0000            xcall __fpadd
 0A3F 18                pop A
 0A40 5300              mov [__r3],A
 0A42 18                pop A
 0A43 5300              mov [__r2],A
 0A45 18                pop A
 0A46 5300              mov [__r1],A
 0A48 18                pop A
 0A49 5300              mov [__r0],A
 0A4B 38FC              add SP,-4
 0A4D 5040              mov A,64
 0A4F 08                push A
 0A50 5000              mov A,0
 0A52 08                push A
 0A53 08                push A
 0A54 08                push A
 0A55 5100              mov A,[__r0]
 0A57 08                push A
 0A58 5100              mov A,[__r1]
 0A5A 08                push A
 0A5B 5100              mov A,[__r2]
 0A5D 08                push A
 0A5E 5100              mov A,[__r3]
 0A60 08                push A
 0A61 7C0000            xcall __fpdiv
 0A64 18                pop A
 0A65 5300              mov [__r3],A
 0A67 18                pop A
 0A68 5300              mov [__r2],A
 0A6A 18                pop A
 0A6B 5300              mov [__r1],A
 0A6D 18                pop A
 0A6E 38FC              add SP,-4
 0A70 08                push A
 0A71 5100              mov A,[__r1]
 0A73 08                push A
 0A74 5100              mov A,[__r2]
 0A76 08                push A
 0A77 5100              mov A,[__r3]
 0A79 08                push A
 0A7A 7C0000            xcall _sqrtf
 0A7D 38FC              add SP,-4
 0A7F 62D000            mov REG[0xd0],>__r0
 0A82 5100              mov A,[__r0]
 0A84 542C              mov [X+44],A
 0A86 5100              mov A,[__r1]
 0A88 542D              mov [X+45],A
 0A8A 5100              mov A,[__r2]
 0A8C 542E              mov [X+46],A
 0A8E 5100              mov A,[__r3]
 0A90 542F              mov [X+47],A
 0A92                   .dbline 78
 0A92           ;    }
 0A92           L16:
 0A92                   .dbline 55
 0A92 073B01            add [X+59],1
 0A95 0F3A00            adc [X+58],0
 0A98 0F3900            adc [X+57],0
 0A9B 0F3800            adc [X+56],0
 0A9E           L18:
 0A9E                   .dbline 55
 0A9E 62D000            mov REG[0xd0],>__r0
 0AA1 5238              mov A,[X+56]
 0AA3 08                push A
 0AA4 5239              mov A,[X+57]
 0AA6 08                push A
 0AA7 523A              mov A,[X+58]
 0AA9 08                push A
 0AAA 523B              mov A,[X+59]
 0AAC 08                push A
 0AAD 7C0000            xcall __long2fp
 0AB0 18                pop A
 0AB1 5300              mov [__r3],A
 0AB3 18                pop A
 0AB4 5300              mov [__r2],A
 0AB6 18                pop A
 0AB7 5300              mov [__r1],A
 0AB9 18                pop A
 0ABA 5300              mov [__r0],A
 0ABC 52F7              mov A,[X-9]
 0ABE 08                push A
 0ABF 52F8              mov A,[X-8]
 0AC1 08                push A
 0AC2 52F9              mov A,[X-7]
 0AC4 08                push A
 0AC5 52FA              mov A,[X-6]
 0AC7 08                push A
 0AC8 5100              mov A,[__r0]
 0ACA 08                push A
 0ACB 5100              mov A,[__r1]
 0ACD 08                push A
 0ACE 5100              mov A,[__r2]
 0AD0 08                push A
 0AD1 5100              mov A,[__r3]
 0AD3 08                push A
 0AD4 7C0000            xcall __fpcmp
 0AD7 38F8              add SP,-8
 0AD9 39FF              cmp A,-1
 0ADB A8E1              jz L15
 0ADD                   .dbline 87
 0ADD           ; 
 0ADD           ;    /* Scaling factor for forward transform */
 0ADD           ; /*    if (dir == 1) {
 0ADD           ;       for (i=0;i<n;i++) {
 0ADD           ;          x[i] /= n;
 0ADD           ;          y[i] /= n;
 0ADD           ;       }
 0ADD           ;    } */
 0ADD           ;    maxAmp = 0; //Maximum Amplitude
 0ADD 62D000            mov REG[0xd0],>_maxAmp
 0AE0 550100            mov [_maxAmp+1],0
 0AE3 550000            mov [_maxAmp],0
 0AE6                   .dbline 88
 0AE6           ;    maxFreq = 0;//Maximum Frequency
 0AE6 62D000            mov REG[0xd0],>_maxFreq
 0AE9 550100            mov [_maxFreq+1],0
 0AEC 550000            mov [_maxFreq],0
 0AEF                   .dbline 89
 0AEF           ;    for(i=0;i<N_points;i++)
 0AEF 560000            mov [X+0],0
 0AF2 560100            mov [X+1],0
 0AF5 560200            mov [X+2],0
 0AF8 560300            mov [X+3],0
 0AFB           L29:
 0AFB                   .dbline 90
 0AFB           ;    {
 0AFB                   .dbline 92
 0AFB           ;    /* Absolute value */
 0AFB           ;               modl[i]=sqrt((x[i]*x[i])+(y[i]*y[i]));
 0AFB 62D000            mov REG[0xd0],>__r0
 0AFE 5200              mov A,[X+0]
 0B00 5300              mov [__r0],A
 0B02 5201              mov A,[X+1]
 0B04 5300              mov [__r1],A
 0B06 5202              mov A,[X+2]
 0B08 5300              mov [__r2],A
 0B0A 5203              mov A,[X+3]
 0B0C 5300              mov [__r3],A
 0B0E 5002              mov A,2
 0B10           X24:
 0B10 62D000            mov REG[0xd0],>__r0
 0B13 6500              asl [__r3]
 0B15 6B00              rlc [__r2]
 0B17 6B00              rlc [__r1]
 0B19 6B00              rlc [__r0]
 0B1B 78                dec A
 0B1C BFF3              jnz X24
 0B1E 5100              mov A,[__r3]
 0B20 5300              mov [__r1],A
 0B22 5100              mov A,[__r2]
 0B24 5300              mov [__r0],A
 0B26 5100              mov A,[__r1]
 0B28 5449              mov [X+73],A
 0B2A 5100              mov A,[__r0]
 0B2C 5448              mov [X+72],A
 0B2E 5100              mov A,[__r1]
 0B30 03F6              add A,[X-10]
 0B32 5300              mov [__r3],A
 0B34 5100              mov A,[__r0]
 0B36 0BF5              adc A,[X-11]
 0B38 60D4              mov REG[0xd4],A
 0B3A 3E00              mvi A,[__r3]
 0B3C 5300              mov [__r4],A
 0B3E 3E00              mvi A,[__r3]
 0B40 5300              mov [__r5],A
 0B42 3E00              mvi A,[__r3]
 0B44 5300              mov [__r6],A
 0B46 3E00              mvi A,[__r3]
 0B48 5300              mov [__r7],A
 0B4A 5100              mov A,[__r1]
 0B4C 03F4              add A,[X-12]
 0B4E 5300              mov [__r3],A
 0B50 5100              mov A,[__r0]
 0B52 0BF3              adc A,[X-13]
 0B54 60D4              mov REG[0xd4],A
 0B56 3E00              mvi A,[__r3]
 0B58 5300              mov [__r8],A
 0B5A 3E00              mvi A,[__r3]
 0B5C 5300              mov [__r9],A
 0B5E 3E00              mvi A,[__r3]
 0B60 5300              mov [__r10],A
 0B62 3E00              mvi A,[__r3]
 0B64 5300              mov [__r11],A
 0B66 5100              mov A,[__r8]
 0B68 08                push A
 0B69 5100              mov A,[__r9]
 0B6B 08                push A
 0B6C 5100              mov A,[__r10]
 0B6E 08                push A
 0B6F 5100              mov A,[__r11]
 0B71 08                push A
 0B72 5100              mov A,[__r8]
 0B74 08                push A
 0B75 5100              mov A,[__r9]
 0B77 08                push A
 0B78 5100              mov A,[__r10]
 0B7A 08                push A
 0B7B 5100              mov A,[__r11]
 0B7D 08                push A
 0B7E 7C0000            xcall __fpmul
 0B81 18                pop A
 0B82 5300              mov [__r11],A
 0B84 18                pop A
 0B85 5300              mov [__r10],A
 0B87 18                pop A
 0B88 5300              mov [__r9],A
 0B8A 18                pop A
 0B8B 5300              mov [__r8],A
 0B8D 38FC              add SP,-4
 0B8F 5100              mov A,[__r4]
 0B91 08                push A
 0B92 5100              mov A,[__r5]
 0B94 08                push A
 0B95 5100              mov A,[__r6]
 0B97 08                push A
 0B98 5100              mov A,[__r7]
 0B9A 08                push A
 0B9B 5100              mov A,[__r4]
 0B9D 08                push A
 0B9E 5100              mov A,[__r5]
 0BA0 08                push A
 0BA1 5100              mov A,[__r6]
 0BA3 08                push A
 0BA4 5100              mov A,[__r7]
 0BA6 08                push A
 0BA7 7C0000            xcall __fpmul
 0BAA 18                pop A
 0BAB 5300              mov [__r7],A
 0BAD 18                pop A
 0BAE 5300              mov [__r6],A
 0BB0 18                pop A
 0BB1 5300              mov [__r5],A
 0BB3 18                pop A
 0BB4 5300              mov [__r4],A
 0BB6 38FC              add SP,-4
 0BB8 5100              mov A,[__r8]
 0BBA 08                push A
 0BBB 5100              mov A,[__r9]
 0BBD 08                push A
 0BBE 5100              mov A,[__r10]
 0BC0 08                push A
 0BC1 5100              mov A,[__r11]
 0BC3 08                push A
 0BC4 5100              mov A,[__r4]
 0BC6 08                push A
 0BC7 5100              mov A,[__r5]
 0BC9 08                push A
 0BCA 5100              mov A,[__r6]
 0BCC 08                push A
 0BCD 5100              mov A,[__r7]
 0BCF 08                push A
 0BD0 7C0000            xcall __fpadd
 0BD3 18                pop A
 0BD4 5300              mov [__r7],A
 0BD6 18                pop A
 0BD7 5300              mov [__r6],A
 0BD9 18                pop A
 0BDA 5300              mov [__r5],A
 0BDC 18                pop A
 0BDD 38FC              add SP,-4
 0BDF 08                push A
 0BE0 5100              mov A,[__r5]
 0BE2 08                push A
 0BE3 5100              mov A,[__r6]
 0BE5 08                push A
 0BE6 5100              mov A,[__r7]
 0BE8 08                push A
 0BE9 7C0000            xcall _sqrtf
 0BEC 38FC              add SP,-4
 0BEE 62D000            mov REG[0xd0],>__r0
 0BF1 5249              mov A,[X+73]
 0BF3 03F2              add A,[X-14]
 0BF5 5300              mov [__r5],A
 0BF7 5248              mov A,[X+72]
 0BF9 0BF1              adc A,[X-15]
 0BFB 60D5              mov REG[0xd5],A
 0BFD 5100              mov A,[__r0]
 0BFF 3F00              mvi [__r5],A
 0C01 5100              mov A,[__r1]
 0C03 3F00              mvi [__r5],A
 0C05 5100              mov A,[__r2]
 0C07 3F00              mvi [__r5],A
 0C09 5100              mov A,[__r3]
 0C0B 3F00              mvi [__r5],A
 0C0D                   .dbline 93
 0C0D           ;               if(modl[i]>maxAmp && i<64) //Compare the max value
 0C0D 62D000            mov REG[0xd0],>_maxAmp
 0C10 5101              mov A,[_maxAmp+1]
 0C12 62D000            mov REG[0xd0],>__r0
 0C15 5300              mov [__r3],A
 0C17 62D000            mov REG[0xd0],>_maxAmp
 0C1A 5100              mov A,[_maxAmp]
 0C1C 62D000            mov REG[0xd0],>__r0
 0C1F 5300              mov [__r2],A
 0C21 470080            tst [__r2],-128
 0C24 A009              jz X25
 0C26 5500FF            mov [__r1],-1
 0C29 5500FF            mov [__r0],-1
 0C2C 800A              jmp X26
 0C2E           X25:
 0C2E 62D000            mov REG[0xd0],>__r0
 0C31 550000            mov [__r1],0
 0C34 550000            mov [__r0],0
 0C37           X26:
 0C37 62D000            mov REG[0xd0],>__r0
 0C3A 5100              mov A,[__r0]
 0C3C 08                push A
 0C3D 5100              mov A,[__r1]
 0C3F 08                push A
 0C40 5100              mov A,[__r2]
 0C42 08                push A
 0C43 5100              mov A,[__r3]
 0C45 08                push A
 0C46 7C0000            xcall __long2fp
 0C49 18                pop A
 0C4A 5300              mov [__r3],A
 0C4C 18                pop A
 0C4D 5300              mov [__r2],A
 0C4F 18                pop A
 0C50 5300              mov [__r1],A
 0C52 18                pop A
 0C53 5300              mov [__r0],A
 0C55 5200              mov A,[X+0]
 0C57 5300              mov [__r4],A
 0C59 5201              mov A,[X+1]
 0C5B 5300              mov [__r5],A
 0C5D 5202              mov A,[X+2]
 0C5F 5300              mov [__r6],A
 0C61 5203              mov A,[X+3]
 0C63 5300              mov [__r7],A
 0C65 5002              mov A,2
 0C67           X27:
 0C67 62D000            mov REG[0xd0],>__r0
 0C6A 6500              asl [__r7]
 0C6C 6B00              rlc [__r6]
 0C6E 6B00              rlc [__r5]
 0C70 6B00              rlc [__r4]
 0C72 78                dec A
 0C73 BFF3              jnz X27
 0C75 5100              mov A,[__r7]
 0C77 5300              mov [__r5],A
 0C79 5100              mov A,[__r6]
 0C7B 5300              mov [__r4],A
 0C7D 52F2              mov A,[X-14]
 0C7F 0400              add [__r5],A
 0C81 52F1              mov A,[X-15]
 0C83 0C00              adc [__r4],A
 0C85 5100              mov A,[__r4]
 0C87 60D4              mov REG[0xd4],A
 0C89 3E00              mvi A,[__r5]
 0C8B 5300              mov [__r8],A
 0C8D 3E00              mvi A,[__r5]
 0C8F 5300              mov [__r9],A
 0C91 3E00              mvi A,[__r5]
 0C93 5300              mov [__r10],A
 0C95 3E00              mvi A,[__r5]
 0C97 5300              mov [__r11],A
 0C99 5100              mov A,[__r0]
 0C9B 08                push A
 0C9C 5100              mov A,[__r1]
 0C9E 08                push A
 0C9F 5100              mov A,[__r2]
 0CA1 08                push A
 0CA2 5100              mov A,[__r3]
 0CA4 08                push A
 0CA5 5100              mov A,[__r8]
 0CA7 08                push A
 0CA8 5100              mov A,[__r9]
 0CAA 08                push A
 0CAB 5100              mov A,[__r10]
 0CAD 08                push A
 0CAE 5100              mov A,[__r11]
 0CB0 08                push A
 0CB1 7C0000            xcall __fpcmp
 0CB4 38F8              add SP,-8
 0CB6 3900              cmp A,0
 0CB8 A09E              jz L33
 0CBA 3901              cmp A,1
 0CBC B09A              jnz L33
 0CBE 5203              mov A,[X+3]
 0CC0 1140              sub A,64
 0CC2 5202              mov A,[X+2]
 0CC4 1900              sbb A,0
 0CC6 5201              mov A,[X+1]
 0CC8 1900              sbb A,0
 0CCA 5200              mov A,[X+0]
 0CCC 3180              xor A,-128
 0CCE 1980              sbb A,(0 ^ 0x80)
 0CD0 D086              jnc L33
 0CD2           X29:
 0CD2                   .dbline 95
 0CD2           ;               {
 0CD2           ;                       maxAmp = modl[i];
 0CD2                   .dbline 95
 0CD2 62D000            mov REG[0xd0],>__r0
 0CD5 5200              mov A,[X+0]
 0CD7 5300              mov [__r0],A
 0CD9 5201              mov A,[X+1]
 0CDB 5300              mov [__r1],A
 0CDD 5202              mov A,[X+2]
 0CDF 5300              mov [__r2],A
 0CE1 5203              mov A,[X+3]
 0CE3 5300              mov [__r3],A
 0CE5 5002              mov A,2
 0CE7           X30:
 0CE7 62D000            mov REG[0xd0],>__r0
 0CEA 6500              asl [__r3]
 0CEC 6B00              rlc [__r2]
 0CEE 6B00              rlc [__r1]
 0CF0 6B00              rlc [__r0]
 0CF2 78                dec A
 0CF3 BFF3              jnz X30
 0CF5 5100              mov A,[__r3]
 0CF7 5300              mov [__r1],A
 0CF9 5100              mov A,[__r2]
 0CFB 5300              mov [__r0],A
 0CFD 52F2              mov A,[X-14]
 0CFF 0400              add [__r1],A
 0D01 52F1              mov A,[X-15]
 0D03 0C00              adc [__r0],A
 0D05 5100              mov A,[__r0]
 0D07 60D4              mov REG[0xd4],A
 0D09 3E00              mvi A,[__r1]
 0D0B 5300              mov [__r4],A
 0D0D 3E00              mvi A,[__r1]
 0D0F 5300              mov [__r5],A
 0D11 3E00              mvi A,[__r1]
 0D13 5300              mov [__r6],A
 0D15 3E00              mvi A,[__r1]
 0D17 5300              mov [__r7],A
 0D19 5100              mov A,[__r4]
 0D1B 08                push A
 0D1C 5100              mov A,[__r5]
 0D1E 08                push A
 0D1F 5100              mov A,[__r6]
 0D21 08                push A
 0D22 5100              mov A,[__r7]
 0D24 08                push A
 0D25 7C0000            xcall __fp2long
 0D28 18                pop A
 0D29 62D000            mov REG[0xd0],>_maxAmp
 0D2C 5301              mov [_maxAmp+1],A
 0D2E 18                pop A
 0D2F 5300              mov [_maxAmp],A
 0D31 38FE              add SP,-2
 0D33                   .dbline 96
 0D33           ;                       maxFreq = i+1;
 0D33 62D000            mov REG[0xd0],>__r0
 0D36 5203              mov A,[X+3]
 0D38 0101              add A,1
 0D3A 5300              mov [__r3],A
 0D3C 5202              mov A,[X+2]
 0D3E 0900              adc A,0
 0D40 5300              mov [__r2],A
 0D42 5100              mov A,[__r3]
 0D44 5300              mov [__r1],A
 0D46 5100              mov A,[__r2]
 0D48 5300              mov [__r0],A
 0D4A 5100              mov A,[__r1]
 0D4C 08                push A
 0D4D 5100              mov A,[__r0]
 0D4F 62D000            mov REG[0xd0],>_maxFreq
 0D52 5300              mov [_maxFreq],A
 0D54 18                pop A
 0D55 5301              mov [_maxFreq+1],A
 0D57                   .dbline 97
 0D57           ;               }
 0D57           L33:
 0D57                   .dbline 99
 0D57           ;               
 0D57           ;       }
 0D57           L30:
 0D57                   .dbline 89
 0D57 070301            add [X+3],1
 0D5A 0F0200            adc [X+2],0
 0D5D 0F0100            adc [X+1],0
 0D60 0F0000            adc [X+0],0
 0D63                   .dbline 89
 0D63 5203              mov A,[X+3]
 0D65 1140              sub A,64
 0D67 5202              mov A,[X+2]
 0D69 1900              sbb A,0
 0D6B 5201              mov A,[X+1]
 0D6D 1900              sbb A,0
 0D6F 5200              mov A,[X+0]
 0D71 3180              xor A,-128
 0D73 1980              sbb A,(0 ^ 0x80)
 0D75 CD85              jc L29
 0D77           X31:
 0D77                   .dbline 100
 0D77           ;       maxFreq = maxFreq * 104;
 0D77 62D000            mov REG[0xd0],>_maxFreq
 0D7A 5100              mov A,[_maxFreq]
 0D7C 08                push A
 0D7D 5101              mov A,[_maxFreq+1]
 0D7F 08                push A
 0D80 5000              mov A,0
 0D82 08                push A
 0D83 5068              mov A,104
 0D85 08                push A
 0D86 62D000            mov REG[0xd0],>__r0
 0D89 7C0000            xcall __mul16
 0D8C 38FC              add SP,-4
 0D8E 5100              mov A,[__rX]
 0D90 62D000            mov REG[0xd0],>_maxFreq
 0D93 5301              mov [_maxFreq+1],A
 0D95 62D000            mov REG[0xd0],>__r0
 0D98 5100              mov A,[__rY]
 0D9A 62D000            mov REG[0xd0],>_maxFreq
 0D9D 5300              mov [_maxFreq],A
 0D9F                   .dbline 101
 0D9F           ;       return;
 0D9F                   .dbline -2
 0D9F           L1:
 0D9F 38B6              add SP,-74
 0DA1 20                pop X
 0DA2                   .dbline 0 ; func end
 0DA2 7F                ret
 0DA3                   .dbsym l ty 68 D
 0DA3                   .dbsym l tx 64 D
 0DA3                   .dbsym l i2 60 L
 0DA3                   .dbsym l l 56 L
 0DA3                   .dbsym l z 52 D
 0DA3                   .dbsym l c2 48 D
 0DA3                   .dbsym l c1 44 D
 0DA3                   .dbsym l k 40 L
 0DA3                   .dbsym l j 36 L
 0DA3                   .dbsym l l2 32 L
 0DA3                   .dbsym l n 28 L
 0DA3                   .dbsym l l1 24 L
 0DA3                   .dbsym l u2 20 D
 0DA3                   .dbsym l u1 16 D
 0DA3                   .dbsym l t2 12 D
 0DA3                   .dbsym l t1 8 D
 0DA3                   .dbsym l i1 4 L
 0DA3                   .dbsym l i 0 L
 0DA3                   .dbsym l modl -15 pD
 0DA3                   .dbsym l y -13 pD
 0DA3                   .dbsym l x -11 pD
 0DA3                   .dbsym l m -9 D
 0DA3                   .dbsym l dir -5 I
 0DA3                   .dbend
                        .area data(ram, con, rel)
 0000                   .dbfile C:\Users\HARISH~1\Desktop\SEM1CO~1\566\Project3\Versions\VERSIO~1\Project1\Project1\fft.h
 0000           _test_int::
 0000 0000              .word 0
 0002                   .dbfile C:\Users\HARISH~1\Desktop\SEM1CO~1\566\Project3\Versions\VERSIO~1\Project1\Project1\main.c
 0002                   .dbsym e test_int _test_int I
                        .area data(ram, con, rel)
 0000                   .dbfile C:\Users\HARISH~1\Desktop\SEM1CO~1\566\Project3\Versions\VERSIO~1\Project1\Project1\main.c
                        .area data(ram, con, rel)
 0000                   .dbfile C:\Users\HARISH~1\Desktop\SEM1CO~1\566\Project3\Versions\VERSIO~1\Project1\Project1\main.c
 0000           _mat_flag::
 0000 0000              .word 0
 0002                   .dbsym e mat_flag _mat_flag i
                        .area data(ram, con, rel)
 0000                   .dbfile C:\Users\HARISH~1\Desktop\SEM1CO~1\566\Project3\Versions\VERSIO~1\Project1\Project1\main.c
                        .area data(ram, con, rel)
 0000                   .dbfile C:\Users\HARISH~1\Desktop\SEM1CO~1\566\Project3\Versions\VERSIO~1\Project1\Project1\main.c
 0000           _downcountFlag::
 0000 0000              .word 0
 0002                   .dbsym e downcountFlag _downcountFlag i
                        .area data(ram, con, rel)
 0000                   .dbfile C:\Users\HARISH~1\Desktop\SEM1CO~1\566\Project3\Versions\VERSIO~1\Project1\Project1\main.c
                        .area data(ram, con, rel)
 0000                   .dbfile C:\Users\HARISH~1\Desktop\SEM1CO~1\566\Project3\Versions\VERSIO~1\Project1\Project1\main.c
 0000           _gblSec::
 0000 0000              .word 0
 0002                   .dbsym e gblSec _gblSec i
                        .area data(ram, con, rel)
 0000                   .dbfile C:\Users\HARISH~1\Desktop\SEM1CO~1\566\Project3\Versions\VERSIO~1\Project1\Project1\main.c
                        .area data(ram, con, rel)
 0000                   .dbfile C:\Users\HARISH~1\Desktop\SEM1CO~1\566\Project3\Versions\VERSIO~1\Project1\Project1\main.c
 0000           _gblMin::
 0000 0000              .word 0
 0002                   .dbsym e gblMin _gblMin I
                        .area data(ram, con, rel)
 0000                   .dbfile C:\Users\HARISH~1\Desktop\SEM1CO~1\566\Project3\Versions\VERSIO~1\Project1\Project1\main.c
                        .area data(ram, con, rel)
 0000                   .dbfile C:\Users\HARISH~1\Desktop\SEM1CO~1\566\Project3\Versions\VERSIO~1\Project1\Project1\main.c
 0000           _gblHour::
 0000 0000              .word 0
 0002                   .dbsym e gblHour _gblHour I
                        .area data(ram, con, rel)
 0000                   .dbfile C:\Users\HARISH~1\Desktop\SEM1CO~1\566\Project3\Versions\VERSIO~1\Project1\Project1\main.c
                        .area data(ram, con, rel)
 0000                   .dbfile C:\Users\HARISH~1\Desktop\SEM1CO~1\566\Project3\Versions\VERSIO~1\Project1\Project1\main.c
 0000           _calibFlag::
 0000 0000              .word 0
 0002                   .dbsym e calibFlag _calibFlag I
                        .area data(ram, con, rel)
 0000                   .dbfile C:\Users\HARISH~1\Desktop\SEM1CO~1\566\Project3\Versions\VERSIO~1\Project1\Project1\main.c
                        .area data(ram, con, rel)
 0000                   .dbfile C:\Users\HARISH~1\Desktop\SEM1CO~1\566\Project3\Versions\VERSIO~1\Project1\Project1\main.c
 0000           _mode::
 0000 0000              .word 0
 0002                   .dbsym e mode _mode i
                        .area data(ram, con, rel)
 0000                   .dbfile C:\Users\HARISH~1\Desktop\SEM1CO~1\566\Project3\Versions\VERSIO~1\Project1\Project1\main.c
                        .area data(ram, con, rel)
 0000                   .dbfile C:\Users\HARISH~1\Desktop\SEM1CO~1\566\Project3\Versions\VERSIO~1\Project1\Project1\main.c
 0000           _noConv::
 0000 0000              .word 0
 0002                   .dbsym e noConv _noConv i
                        .area data(ram, con, rel)
 0000                   .dbfile C:\Users\HARISH~1\Desktop\SEM1CO~1\566\Project3\Versions\VERSIO~1\Project1\Project1\main.c
                        .area data(ram, con, rel)
 0000                   .dbfile C:\Users\HARISH~1\Desktop\SEM1CO~1\566\Project3\Versions\VERSIO~1\Project1\Project1\main.c
 0000           _mode_check_count::
 0000 0000              .word 0
 0002                   .dbsym e mode_check_count _mode_check_count i
                        .area data(ram, con, rel)
 0000                   .dbfile C:\Users\HARISH~1\Desktop\SEM1CO~1\566\Project3\Versions\VERSIO~1\Project1\Project1\main.c
                        .area data(ram, con, rel)
 0000                   .dbfile C:\Users\HARISH~1\Desktop\SEM1CO~1\566\Project3\Versions\VERSIO~1\Project1\Project1\main.c
 0000           _temp_value::
 0000 0000              .word 0
 0002                   .dbsym e temp_value _temp_value i
                        .area data(ram, con, rel)
 0000                   .dbfile C:\Users\HARISH~1\Desktop\SEM1CO~1\566\Project3\Versions\VERSIO~1\Project1\Project1\main.c
                        .area data(ram, con, rel)
 0000                   .dbfile C:\Users\HARISH~1\Desktop\SEM1CO~1\566\Project3\Versions\VERSIO~1\Project1\Project1\main.c
 0000           _temp_mode::
 0000 0000              .word 0
 0002                   .dbsym e temp_mode _temp_mode i
                        .area data(ram, con, rel)
 0000                   .dbfile C:\Users\HARISH~1\Desktop\SEM1CO~1\566\Project3\Versions\VERSIO~1\Project1\Project1\main.c
                        .area data(ram, con, rel)
 0000                   .dbfile C:\Users\HARISH~1\Desktop\SEM1CO~1\566\Project3\Versions\VERSIO~1\Project1\Project1\main.c
 0000           _dumflag::
 0000 0000              .word 0
 0002                   .dbsym e dumflag _dumflag i
                        .area data(ram, con, rel)
 0000                   .dbfile C:\Users\HARISH~1\Desktop\SEM1CO~1\566\Project3\Versions\VERSIO~1\Project1\Project1\main.c
                        .area data(ram, con, rel)
 0000                   .dbfile C:\Users\HARISH~1\Desktop\SEM1CO~1\566\Project3\Versions\VERSIO~1\Project1\Project1\main.c
 0000           _h::
 0000 0000              .word 0
 0002                   .dbsym e h _h i
                        .area data(ram, con, rel)
 0000                   .dbfile C:\Users\HARISH~1\Desktop\SEM1CO~1\566\Project3\Versions\VERSIO~1\Project1\Project1\main.c
                        .area data(ram, con, rel)
 0000                   .dbfile C:\Users\HARISH~1\Desktop\SEM1CO~1\566\Project3\Versions\VERSIO~1\Project1\Project1\main.c
 0000           _j::
 0000 0000              .word 0
 0002                   .dbsym e j _j i
                        .area data(ram, con, rel)
 0000                   .dbfile C:\Users\HARISH~1\Desktop\SEM1CO~1\566\Project3\Versions\VERSIO~1\Project1\Project1\main.c
                        .area data(ram, con, rel)
 0000                   .dbfile C:\Users\HARISH~1\Desktop\SEM1CO~1\566\Project3\Versions\VERSIO~1\Project1\Project1\main.c
 0000           _m::
 0000 0000              .word 0
 0002                   .dbsym e m _m i
                        .area data(ram, con, rel)
 0000                   .dbfile C:\Users\HARISH~1\Desktop\SEM1CO~1\566\Project3\Versions\VERSIO~1\Project1\Project1\main.c
                        .area data(ram, con, rel)
 0000                   .dbfile C:\Users\HARISH~1\Desktop\SEM1CO~1\566\Project3\Versions\VERSIO~1\Project1\Project1\main.c
 0000           _sampFreq::
 0000 3412              .word 13330
 0002                   .dbsym e sampFreq _sampFreq i
                        .area data(ram, con, rel)
 0000                   .dbfile C:\Users\HARISH~1\Desktop\SEM1CO~1\566\Project3\Versions\VERSIO~1\Project1\Project1\main.c
                        .area data(ram, con, rel)
 0000                   .dbfile C:\Users\HARISH~1\Desktop\SEM1CO~1\566\Project3\Versions\VERSIO~1\Project1\Project1\main.c
 0000           _avg_Freq::
 0000 00000000          .word 0x0,0x0
 0004                   .dbsym e avg_Freq _avg_Freq D
                        .area data(ram, con, rel)
 0000                   .dbfile C:\Users\HARISH~1\Desktop\SEM1CO~1\566\Project3\Versions\VERSIO~1\Project1\Project1\main.c
                        .area data(ram, con, rel)
 0000                   .dbfile C:\Users\HARISH~1\Desktop\SEM1CO~1\566\Project3\Versions\VERSIO~1\Project1\Project1\main.c
 0000           _avg_Mat::
 0000 00000000          .word 0x0,0x0
 0004                   .dbsym e avg_Mat _avg_Mat D
                        .area data(ram, con, rel)
 0000                   .dbfile C:\Users\HARISH~1\Desktop\SEM1CO~1\566\Project3\Versions\VERSIO~1\Project1\Project1\main.c
                        .area text(rom, con, rel)
 0DA3                   .dbfile C:\Users\HARISH~1\Desktop\SEM1CO~1\566\Project3\Versions\VERSIO~1\Project1\Project1\main.c
 0DA3                   .dbfunc e main _main fV
 0DA3           ;        isMatch -> X+21
 0DA3           ;            str -> X+6
 0DA3           ;      mode_flag -> X+4
 0DA3           ;              a -> X+2
 0DA3           ;              i -> X+0
 0DA3           _main::
 0DA3                   .dbline -1
 0DA3 10                push X
 0DA4 4F                mov X,SP
 0DA5 3817              add SP,23
 0DA7                   .dbline 59
 0DA7           ; //----------------------------------------------------------------------------
 0DA7           ; // C main line
 0DA7           ; //----------------------------------------------------------------------------
 0DA7           ; //Project 3 Final Code
 0DA7           ; #include <m8c.h>        // part specific constants and macros.
 0DA7           ; #include "PSoCAPI.h"    // PSoC API definitions for all User Modules.
 0DA7           ; #include "stdio.h"
 0DA7           ; #include "fft.h"
 0DA7           ; #include "math.h"
 0DA7           ; #include "stdlib.h"
 0DA7           ; #include "string.h"
 0DA7           ; 
 0DA7           ; extern unsigned int i_msec;
 0DA7           ; extern unsigned int i_sec;
 0DA7           ; extern unsigned int i_min;
 0DA7           ; extern unsigned int i_hour;
 0DA7           ; extern unsigned int cnt_sec;
 0DA7           ; extern unsigned int cnt_min;
 0DA7           ; extern unsigned int cnt_hour,dispCount;
 0DA7           ; extern unsigned int downCount,dumCount;
 0DA7           ; 
 0DA7           ; 
 0DA7           ; 
 0DA7           ; int test_int= 0;
 0DA7           ; 
 0DA7           ; unsigned int mat_flag=0;
 0DA7           ; unsigned int downcountFlag = 0;
 0DA7           ; unsigned int dispflag;
 0DA7           ; void LCD_Clear(void); 
 0DA7           ; void getFFTOutput(void);
 0DA7           ; void matlabOut(void);
 0DA7           ; void cordic1(void);
 0DA7           ; void max_likelihood(void);
 0DA7           ; void soundLocalize(void );
 0DA7           ; void serialDataOut(void );
 0DA7           ; void matlabOut(void );
 0DA7           ; 
 0DA7           ; 
 0DA7           ; unsigned int gblSec =0;gblMin=0;gblHour=0,calibFlag=0;
 0DA7           ; unsigned int mode = 0,noConv=0; // 0 - Free Run (Default) ; 1 - Caliberation ; 2 - Matching.
 0DA7           ; unsigned int avgFirstCal,avgFirstMat;
 0DA7           ; unsigned int mode_check_count = 0;
 0DA7           ; unsigned int temp_value = 0;
 0DA7           ; unsigned int temp_mode = 0,dumflag=0;
 0DA7           ; int  max;
 0DA7           ; int compMax, compFreq, lclMax, lclFreq;
 0DA7           ; double hannMul, hannValue,hannValue1;
 0DA7           ; unsigned int h=0,j=0,m=0;         //index
 0DA7           ; unsigned int ind; 
 0DA7           ; unsigned int sampFreq=13330;
 0DA7           ; double ar1[32],ar2[32];
 0DA7           ; double  freq,avg_Freq=0,avg_Mat=0;    // time record
 0DA7           ; double maxf;
 0DA7           ; unsigned int avgCalNoise;
 0DA7           ; 
 0DA7           ; 
 0DA7           ; 
 0DA7           ; void main(void)
 0DA7           ; {
 0DA7                   .dbline 61
 0DA7           ;       char str[15];
 0DA7           ;       int a=0,i =0,mode_flag =0,isMatch;
 0DA7 560300            mov [X+3],0
 0DAA 560200            mov [X+2],0
 0DAD                   .dbline 61
 0DAD 560100            mov [X+1],0
 0DB0 560000            mov [X+0],0
 0DB3                   .dbline 61
 0DB3 560500            mov [X+5],0
 0DB6 560400            mov [X+4],0
 0DB9                   .dbline 62
 0DB9           ;       LCD_Start();
 0DB9 10                push X
 0DBA 7C0000            xcall _LCD_Start
 0DBD                   .dbline 63
 0DBD           ;       UART_Start(UART_PARITY_NONE);
 0DBD 5000              mov A,0
 0DBF 7C0000            xcall _UART_Start
 0DC2                   .dbline 64
 0DC2           ;       PGA_1_Start(PGA_1_HIGHPOWER);
 0DC2 5003              mov A,3
 0DC4 7C0000            xcall _PGA_1_Start
 0DC7                   .dbline 65
 0DC7           ;       PGA_2_Start(PGA_2_HIGHPOWER);
 0DC7 5003              mov A,3
 0DC9 7C0000            xcall _PGA_2_Start
 0DCC                   .dbline 66
 0DCC           ;       LPF2_3_Start(LPF2_3_HIGHPOWER);
 0DCC 5003              mov A,3
 0DCE 7C0000            xcall _LPF2_3_Start
 0DD1                   .dbline 67
 0DD1           ;       PGA_3_Start(PGA_3_HIGHPOWER);
 0DD1 5003              mov A,3
 0DD3 7C0000            xcall _PGA_3_Start
 0DD6                   .dbline 68
 0DD6           ;       PGA_4_Start(PGA_4_HIGHPOWER);
 0DD6 5003              mov A,3
 0DD8 7C0000            xcall _PGA_4_Start
 0DDB                   .dbline 69
 0DDB           ;       LPF2_1_Start(LPF2_1_HIGHPOWER);
 0DDB 5003              mov A,3
 0DDD 7C0000            xcall _LPF2_1_Start
 0DE0 20                pop X
 0DE1                   .dbline 70
 0DE1           ;     M8C_EnableGInt;                     // Enable global interrupts   
 0DE1 7101                      or  F, 01h
 0DE3           
 0DE3                   .dbline 71
 0DE3           ;       Timer_Start();
 0DE3 10                push X
 0DE4 7C0000            xcall _Timer_Start
 0DE7 20                pop X
 0DE8                   .dbline 72
 0DE8           ;       LCD_Clear();
 0DE8 96D4              xcall _LCD_Clear
 0DEA                   .dbline 73
 0DEA           ;       Timer_EnableInt();
 0DEA 10                push X
 0DEB 7C0000            xcall _Timer_EnableInt
 0DEE                   .dbline 74
 0DEE           ;       DUALADC_Start(DUALADC_HIGHPOWER);     // Turn on Analog section
 0DEE 5003              mov A,3
 0DF0 7C0000            xcall _DUALADC_Start
 0DF3                   .dbline 75
 0DF3           ;     DUALADC_GetSamples(0);
 0DF3 5000              mov A,0
 0DF5 7C0000            xcall _DUALADC_GetSamples
 0DF8 20                pop X
 0DF9                   .dbline 76
 0DF9           ;       freq=104;
 0DF9 62D000            mov REG[0xd0],>_freq
 0DFC 550042            mov [_freq],66
 0DFF 5501D0            mov [_freq+1],-48
 0E02 550200            mov [_freq+2],0
 0E05 550300            mov [_freq+3],0
 0E08                   .dbline 77
 0E08           ;     i=0;
 0E08 560100            mov [X+1],0
 0E0B 560000            mov [X+0],0
 0E0E                   .dbline 78
 0E0E           ;       LCD_Clear();
 0E0E 96AE              xcall _LCD_Clear
 0E10                   .dbline 79
 0E10           ;       LCD_Position(1,0);
 0E10 10                push X
 0E11 5700              mov X,0
 0E13 5001              mov A,1
 0E15 7C0000            xcall _LCD_Position
 0E18                   .dbline 80
 0E18           ;       LCD_PrCString("hELLO");
 0E18 5065              mov A,>L36
 0E1A 08                push A
 0E1B 5065              mov A,<L36
 0E1D 5C                mov X,A
 0E1E 18                pop A
 0E1F 7C0000            xcall _LCD_PrCString
 0E22                   .dbline 82
 0E22           ;       
 0E22           ;       UART_CPutString("\n\rFFT OUTPUT:\n\r");
 0E22 5055              mov A,>L37
 0E24 08                push A
 0E25 5055              mov A,<L37
 0E27 5C                mov X,A
 0E28 18                pop A
 0E29 7C0000            xcall _UART_CPutString
 0E2C 20                pop X
 0E2D                   .dbline 83
 0E2D           ;       soundLocalize();
 0E2D 96B4              xcall _soundLocalize
 0E2F                   .dbline 84
 0E2F           ;       matlabOut();
 0E2F 94C1              xcall _matlabOut
 0E31                   .dbline -2
 0E31           L35:
 0E31 38E9              add SP,-23
 0E33 20                pop X
 0E34                   .dbline 0 ; func end
 0E34 8FFF              jmp .
 0E36                   .dbsym l isMatch 21 I
 0E36                   .dbsym l str 6 A[15:15]c
 0E36                   .dbsym l mode_flag 4 I
 0E36                   .dbsym l a 2 I
 0E36                   .dbsym l i 0 I
 0E36                   .dbend
 0E36                   .dbfunc e getFFTOutput _getFFTOutput fV
 0E36           ;          temp1 -> X+10
 0E36           ;           temp -> X+6
 0E36           ;         Status -> X+4
 0E36           ;           flag -> X+2
 0E36           ;              i -> X+0
 0E36           _getFFTOutput::
 0E36                   .dbline -1
 0E36 10                push X
 0E37 4F                mov X,SP
 0E38 3810              add SP,16
 0E3A                   .dbline 88
 0E3A           ; }
 0E3A           ; 
 0E3A           ; void getFFTOutput(void)
 0E3A           ; {
 0E3A                   .dbline 89
 0E3A           ;       int i,Status,flag=0;
 0E3A 560300            mov [X+3],0
 0E3D 560200            mov [X+2],0
 0E40                   .dbline 91
 0E40           ;       char temp[4],*temp1;
 0E40           ;       for(i=0;i<N_points;i++)
 0E40 560100            mov [X+1],0
 0E43 560000            mov [X+0],0
 0E46           L39:
 0E46                   .dbline 92
 0E46           ;     {         
 0E46                   .dbline 93
 0E46           ;               mod[i]=0;       //init 0
 0E46 62D000            mov REG[0xd0],>__r0
 0E49 5201              mov A,[X+1]
 0E4B 5300              mov [__r1],A
 0E4D 5200              mov A,[X+0]
 0E4F 5300              mov [__r0],A
 0E51 6500              asl [__r1]
 0E53 6B00              rlc [__r0]
 0E55 6500              asl [__r1]
 0E57 6B00              rlc [__r0]
 0E59 060000            add [__r1],<_mod
 0E5C 0E0000            adc [__r0],>_mod
 0E5F 5100              mov A,[__r0]
 0E61 60D5              mov REG[0xd5],A
 0E63 5000              mov A,0
 0E65 3F00              mvi [__r1],A
 0E67 3F00              mvi [__r1],A
 0E69 3F00              mvi [__r1],A
 0E6B 3F00              mvi [__r1],A
 0E6D                   .dbline 95
 0E6D           ;               //mod1[i]=0;
 0E6D           ;               data_re[i]=0;
 0E6D 5201              mov A,[X+1]
 0E6F 5300              mov [__r1],A
 0E71 5200              mov A,[X+0]
 0E73 5300              mov [__r0],A
 0E75 6500              asl [__r1]
 0E77 6B00              rlc [__r0]
 0E79 6500              asl [__r1]
 0E7B 6B00              rlc [__r0]
 0E7D 060000            add [__r1],<_data_re
 0E80 0E0000            adc [__r0],>_data_re
 0E83 5100              mov A,[__r0]
 0E85 60D5              mov REG[0xd5],A
 0E87 5000              mov A,0
 0E89 3F00              mvi [__r1],A
 0E8B 3F00              mvi [__r1],A
 0E8D 3F00              mvi [__r1],A
 0E8F 3F00              mvi [__r1],A
 0E91                   .dbline 96
 0E91           ;               data_re1[i]=0;
 0E91 5201              mov A,[X+1]
 0E93 5300              mov [__r1],A
 0E95 5200              mov A,[X+0]
 0E97 5300              mov [__r0],A
 0E99 6500              asl [__r1]
 0E9B 6B00              rlc [__r0]
 0E9D 6500              asl [__r1]
 0E9F 6B00              rlc [__r0]
 0EA1 060000            add [__r1],<_data_re1
 0EA4 0E0000            adc [__r0],>_data_re1
 0EA7 5100              mov A,[__r0]
 0EA9 60D5              mov REG[0xd5],A
 0EAB 5000              mov A,0
 0EAD 3F00              mvi [__r1],A
 0EAF 3F00              mvi [__r1],A
 0EB1 3F00              mvi [__r1],A
 0EB3 3F00              mvi [__r1],A
 0EB5                   .dbline 97
 0EB5           ;               data_imm[i]=0;
 0EB5 5201              mov A,[X+1]
 0EB7 5300              mov [__r1],A
 0EB9 5200              mov A,[X+0]
 0EBB 5300              mov [__r0],A
 0EBD 6500              asl [__r1]
 0EBF 6B00              rlc [__r0]
 0EC1 6500              asl [__r1]
 0EC3 6B00              rlc [__r0]
 0EC5 060000            add [__r1],<_data_imm
 0EC8 0E0000            adc [__r0],>_data_imm
 0ECB 5100              mov A,[__r0]
 0ECD 60D5              mov REG[0xd5],A
 0ECF 5000              mov A,0
 0ED1 3F00              mvi [__r1],A
 0ED3 3F00              mvi [__r1],A
 0ED5 3F00              mvi [__r1],A
 0ED7 3F00              mvi [__r1],A
 0ED9                   .dbline 98
 0ED9           ;               data_imm1[i]=0;
 0ED9 5201              mov A,[X+1]
 0EDB 5300              mov [__r1],A
 0EDD 5200              mov A,[X+0]
 0EDF 5300              mov [__r0],A
 0EE1 6500              asl [__r1]
 0EE3 6B00              rlc [__r0]
 0EE5 6500              asl [__r1]
 0EE7 6B00              rlc [__r0]
 0EE9 060000            add [__r1],<_data_imm1
 0EEC 0E0000            adc [__r0],>_data_imm1
 0EEF 5100              mov A,[__r0]
 0EF1 60D5              mov REG[0xd5],A
 0EF3 5000              mov A,0
 0EF5 3F00              mvi [__r1],A
 0EF7 3F00              mvi [__r1],A
 0EF9 3F00              mvi [__r1],A
 0EFB 3F00              mvi [__r1],A
 0EFD                   .dbline 99
 0EFD           ;     }
 0EFD           L40:
 0EFD                   .dbline 91
 0EFD 7701              inc [X+1]
 0EFF 0F0000            adc [X+0],0
 0F02                   .dbline 91
 0F02 5201              mov A,[X+1]
 0F04 1140              sub A,64
 0F06 5200              mov A,[X+0]
 0F08 3180              xor A,-128
 0F0A 1980              sbb A,(0 ^ 0x80)
 0F0C CF39              jc L39
 0F0E           X32:
 0F0E                   .dbline 100
 0F0E           ;       i=0;
 0F0E 560100            mov [X+1],0
 0F11 560000            mov [X+0],0
 0F14 82A2              xjmp L44
 0F16           L46:
 0F16                   .dbline 103
 0F16           ;               while(i!= N_points) // Wait for data to be ready. 
 0F16           ;               {                                       
 0F16           ;               while(DUALADC_fIsDataAvailable() == 0); 
 0F16           L47:
 0F16                   .dbline 103
 0F16 10                push X
 0F17 7C0000            xcall _DUALADC_fIsDataAvailable
 0F1A 20                pop X
 0F1B 62D000            mov REG[0xd0],>__r0
 0F1E 3900              cmp A,0
 0F20 AFF5              jz L46
 0F22                   .dbline 104
 0F22           ;                       hannValue = DUALADC_iGetData1();
 0F22 10                push X
 0F23 7C0000            xcall _DUALADC_iGetData1
 0F26 62D000            mov REG[0xd0],>__r0
 0F29 5A00              mov [__r0],X
 0F2B 20                pop X
 0F2C 62D000            mov REG[0xd0],>_hannValue
 0F2F 5303              mov [_hannValue+3],A
 0F31 62D000            mov REG[0xd0],>__r0
 0F34 5100              mov A,[__r0]
 0F36 62D000            mov REG[0xd0],>_hannValue
 0F39 5302              mov [_hannValue+2],A
 0F3B 470280            tst [_hannValue+2],-128
 0F3E A009              jz X33
 0F40 5501FF            mov [_hannValue+1],-1
 0F43 5500FF            mov [_hannValue],-1
 0F46 800A              jmp X34
 0F48           X33:
 0F48 62D000            mov REG[0xd0],>_hannValue
 0F4B 550100            mov [_hannValue+1],0
 0F4E 550000            mov [_hannValue],0
 0F51           X34:
 0F51 62D000            mov REG[0xd0],>_hannValue
 0F54 5100              mov A,[_hannValue]
 0F56 08                push A
 0F57 5101              mov A,[_hannValue+1]
 0F59 08                push A
 0F5A 5102              mov A,[_hannValue+2]
 0F5C 08                push A
 0F5D 5103              mov A,[_hannValue+3]
 0F5F 08                push A
 0F60 62D000            mov REG[0xd0],>__r0
 0F63 7C0000            xcall __long2fp
 0F66 18                pop A
 0F67 62D000            mov REG[0xd0],>_hannValue
 0F6A 5303              mov [_hannValue+3],A
 0F6C 18                pop A
 0F6D 5302              mov [_hannValue+2],A
 0F6F 18                pop A
 0F70 5301              mov [_hannValue+1],A
 0F72 18                pop A
 0F73 5300              mov [_hannValue],A
 0F75                   .dbline 105
 0F75           ;                       hannValue1 = DUALADC_iGetData2ClearFlag();
 0F75 10                push X
 0F76 7C0000            xcall _DUALADC_iGetData2ClearFlag
 0F79 62D000            mov REG[0xd0],>__r0
 0F7C 5A00              mov [__r0],X
 0F7E 20                pop X
 0F7F 62D000            mov REG[0xd0],>_hannValue1
 0F82 5303              mov [_hannValue1+3],A
 0F84 62D000            mov REG[0xd0],>__r0
 0F87 5100              mov A,[__r0]
 0F89 62D000            mov REG[0xd0],>_hannValue1
 0F8C 5302              mov [_hannValue1+2],A
 0F8E 470280            tst [_hannValue1+2],-128
 0F91 A009              jz X35
 0F93 5501FF            mov [_hannValue1+1],-1
 0F96 5500FF            mov [_hannValue1],-1
 0F99 800A              jmp X36
 0F9B           X35:
 0F9B 62D000            mov REG[0xd0],>_hannValue1
 0F9E 550100            mov [_hannValue1+1],0
 0FA1 550000            mov [_hannValue1],0
 0FA4           X36:
 0FA4 62D000            mov REG[0xd0],>_hannValue1
 0FA7 5100              mov A,[_hannValue1]
 0FA9 08                push A
 0FAA 5101              mov A,[_hannValue1+1]
 0FAC 08                push A
 0FAD 5102              mov A,[_hannValue1+2]
 0FAF 08                push A
 0FB0 5103              mov A,[_hannValue1+3]
 0FB2 08                push A
 0FB3 62D000            mov REG[0xd0],>__r0
 0FB6 7C0000            xcall __long2fp
 0FB9 18                pop A
 0FBA 62D000            mov REG[0xd0],>_hannValue1
 0FBD 5303              mov [_hannValue1+3],A
 0FBF 18                pop A
 0FC0 5302              mov [_hannValue1+2],A
 0FC2 18                pop A
 0FC3 5301              mov [_hannValue1+1],A
 0FC5 18                pop A
 0FC6 5300              mov [_hannValue1],A
 0FC8                   .dbline 106
 0FC8           ;                       if (hannValue > 0x0040 || flag == 1)
 0FC8 62D000            mov REG[0xd0],>_hannValue
 0FCB 5042              mov A,66
 0FCD 08                push A
 0FCE 5080              mov A,-128
 0FD0 08                push A
 0FD1 5000              mov A,0
 0FD3 08                push A
 0FD4 08                push A
 0FD5 5100              mov A,[_hannValue]
 0FD7 08                push A
 0FD8 5101              mov A,[_hannValue+1]
 0FDA 08                push A
 0FDB 5102              mov A,[_hannValue+2]
 0FDD 08                push A
 0FDE 5103              mov A,[_hannValue+3]
 0FE0 08                push A
 0FE1 62D000            mov REG[0xd0],>__r0
 0FE4 7C0000            xcall __fpcmp
 0FE7 38F8              add SP,-8
 0FE9 3901              cmp A,1
 0FEB A00B              jz L51
 0FED 3D0200            cmp [X+2],0
 0FF0 B1C6              jnz L49
 0FF2 3D0301            cmp [X+3],1
 0FF5 B1C1              jnz L49
 0FF7           X38:
 0FF7           L51:
 0FF7                   .dbline 109
 0FF7           ;                       {
 0FF7           ;                               
 0FF7           ;                               flag =1;
 0FF7                   .dbline 109
 0FF7 560301            mov [X+3],1
 0FFA 560200            mov [X+2],0
 0FFD                   .dbline 110
 0FFD           ;                               hannMul = 0.5*(1-cos(0.0494*i));
 0FFD 62D000            mov REG[0xd0],>__r0
 1000 5201              mov A,[X+1]
 1002 5300              mov [__r3],A
 1004 5200              mov A,[X+0]
 1006 5300              mov [__r2],A
 1008 470080            tst [__r2],-128
 100B A009              jz X39
 100D 5500FF            mov [__r1],-1
 1010 5500FF            mov [__r0],-1
 1013 800A              jmp X40
 1015           X39:
 1015 62D000            mov REG[0xd0],>__r0
 1018 550000            mov [__r1],0
 101B 550000            mov [__r0],0
 101E           X40:
 101E 62D000            mov REG[0xd0],>__r0
 1021 5100              mov A,[__r0]
 1023 08                push A
 1024 5100              mov A,[__r1]
 1026 08                push A
 1027 5100              mov A,[__r2]
 1029 08                push A
 102A 5100              mov A,[__r3]
 102C 08                push A
 102D 7C0000            xcall __long2fp
 1030 18                pop A
 1031 5300              mov [__r3],A
 1033 18                pop A
 1034 5300              mov [__r2],A
 1036 18                pop A
 1037 5300              mov [__r1],A
 1039 18                pop A
 103A 08                push A
 103B 5100              mov A,[__r1]
 103D 08                push A
 103E 5100              mov A,[__r2]
 1040 08                push A
 1041 5100              mov A,[__r3]
 1043 08                push A
 1044 503D              mov A,61
 1046 08                push A
 1047 504A              mov A,74
 1049 08                push A
 104A 5057              mov A,87
 104C 08                push A
 104D 50A8              mov A,-88
 104F 08                push A
 1050 7C0000            xcall __fpmul
 1053 18                pop A
 1054 5300              mov [__r3],A
 1056 18                pop A
 1057 5300              mov [__r2],A
 1059 18                pop A
 105A 5300              mov [__r1],A
 105C 18                pop A
 105D 38FC              add SP,-4
 105F 08                push A
 1060 5100              mov A,[__r1]
 1062 08                push A
 1063 5100              mov A,[__r2]
 1065 08                push A
 1066 5100              mov A,[__r3]
 1068 08                push A
 1069 7C0000            xcall _cosf
 106C 38FC              add SP,-4
 106E 62D000            mov REG[0xd0],>__r0
 1071 5100              mov A,[__r0]
 1073 08                push A
 1074 5100              mov A,[__r1]
 1076 08                push A
 1077 5100              mov A,[__r2]
 1079 08                push A
 107A 5100              mov A,[__r3]
 107C 08                push A
 107D 503F              mov A,63
 107F 08                push A
 1080 5080              mov A,-128
 1082 08                push A
 1083 5000              mov A,0
 1085 08                push A
 1086 08                push A
 1087 7C0000            xcall __fpsub
 108A 18                pop A
 108B 5300              mov [__r3],A
 108D 18                pop A
 108E 5300              mov [__r2],A
 1090 18                pop A
 1091 5300              mov [__r1],A
 1093 18                pop A
 1094 38FC              add SP,-4
 1096 08                push A
 1097 5100              mov A,[__r1]
 1099 08                push A
 109A 5100              mov A,[__r2]
 109C 08                push A
 109D 5100              mov A,[__r3]
 109F 08                push A
 10A0 503F              mov A,63
 10A2 08                push A
 10A3 5000              mov A,0
 10A5 08                push A
 10A6 08                push A
 10A7 08                push A
 10A8 7C0000            xcall __fpmul
 10AB 18                pop A
 10AC 62D000            mov REG[0xd0],>_hannMul
 10AF 5303              mov [_hannMul+3],A
 10B1 18                pop A
 10B2 5302              mov [_hannMul+2],A
 10B4 18                pop A
 10B5 5301              mov [_hannMul+1],A
 10B7 18                pop A
 10B8 5300              mov [_hannMul],A
 10BA 38FC              add SP,-4
 10BC                   .dbline 111
 10BC           ;                               hannValue = hannMul * hannValue;
 10BC 62D000            mov REG[0xd0],>_hannValue
 10BF 5100              mov A,[_hannValue]
 10C1 08                push A
 10C2 5101              mov A,[_hannValue+1]
 10C4 08                push A
 10C5 5102              mov A,[_hannValue+2]
 10C7 08                push A
 10C8 5103              mov A,[_hannValue+3]
 10CA 08                push A
 10CB 62D000            mov REG[0xd0],>_hannMul
 10CE 5100              mov A,[_hannMul]
 10D0 08                push A
 10D1 5101              mov A,[_hannMul+1]
 10D3 08                push A
 10D4 5102              mov A,[_hannMul+2]
 10D6 08                push A
 10D7 5103              mov A,[_hannMul+3]
 10D9 08                push A
 10DA 62D000            mov REG[0xd0],>__r0
 10DD 7C0000            xcall __fpmul
 10E0 18                pop A
 10E1 62D000            mov REG[0xd0],>_hannValue
 10E4 5303              mov [_hannValue+3],A
 10E6 18                pop A
 10E7 5302              mov [_hannValue+2],A
 10E9 18                pop A
 10EA 5301              mov [_hannValue+1],A
 10EC 18                pop A
 10ED 5300              mov [_hannValue],A
 10EF 38FC              add SP,-4
 10F1                   .dbline 112
 10F1           ;                               hannValue1 = hannMul*hannValue1;
 10F1 62D000            mov REG[0xd0],>_hannValue1
 10F4 5100              mov A,[_hannValue1]
 10F6 08                push A
 10F7 5101              mov A,[_hannValue1+1]
 10F9 08                push A
 10FA 5102              mov A,[_hannValue1+2]
 10FC 08                push A
 10FD 5103              mov A,[_hannValue1+3]
 10FF 08                push A
 1100 62D000            mov REG[0xd0],>_hannMul
 1103 5100              mov A,[_hannMul]
 1105 08                push A
 1106 5101              mov A,[_hannMul+1]
 1108 08                push A
 1109 5102              mov A,[_hannMul+2]
 110B 08                push A
 110C 5103              mov A,[_hannMul+3]
 110E 08                push A
 110F 62D000            mov REG[0xd0],>__r0
 1112 7C0000            xcall __fpmul
 1115 18                pop A
 1116 62D000            mov REG[0xd0],>_hannValue1
 1119 5303              mov [_hannValue1+3],A
 111B 18                pop A
 111C 5302              mov [_hannValue1+2],A
 111E 18                pop A
 111F 5301              mov [_hannValue1+1],A
 1121 18                pop A
 1122 5300              mov [_hannValue1],A
 1124 38FC              add SP,-4
 1126                   .dbline 113
 1126           ;                               data_re[i] = hannValue;
 1126 62D000            mov REG[0xd0],>__r0
 1129 5201              mov A,[X+1]
 112B 5300              mov [__r1],A
 112D 5200              mov A,[X+0]
 112F 5300              mov [__r0],A
 1131 6500              asl [__r1]
 1133 6B00              rlc [__r0]
 1135 6500              asl [__r1]
 1137 6B00              rlc [__r0]
 1139 060000            add [__r1],<_data_re
 113C 0E0000            adc [__r0],>_data_re
 113F 5100              mov A,[__r0]
 1141 60D5              mov REG[0xd5],A
 1143 62D000            mov REG[0xd0],>_hannValue
 1146 5100              mov A,[_hannValue]
 1148 62D000            mov REG[0xd0],>__r0
 114B 3F00              mvi [__r1],A
 114D 62D000            mov REG[0xd0],>_hannValue
 1150 5101              mov A,[_hannValue+1]
 1152 62D000            mov REG[0xd0],>__r0
 1155 3F00              mvi [__r1],A
 1157 62D000            mov REG[0xd0],>_hannValue
 115A 5102              mov A,[_hannValue+2]
 115C 62D000            mov REG[0xd0],>__r0
 115F 3F00              mvi [__r1],A
 1161 62D000            mov REG[0xd0],>_hannValue
 1164 5103              mov A,[_hannValue+3]
 1166 62D000            mov REG[0xd0],>__r0
 1169 3F00              mvi [__r1],A
 116B                   .dbline 114
 116B           ;                               data_re1[i] = hannValue1;
 116B 5201              mov A,[X+1]
 116D 5300              mov [__r1],A
 116F 5200              mov A,[X+0]
 1171 5300              mov [__r0],A
 1173 6500              asl [__r1]
 1175 6B00              rlc [__r0]
 1177 6500              asl [__r1]
 1179 6B00              rlc [__r0]
 117B 060000            add [__r1],<_data_re1
 117E 0E0000            adc [__r0],>_data_re1
 1181 5100              mov A,[__r0]
 1183 60D5              mov REG[0xd5],A
 1185 62D000            mov REG[0xd0],>_hannValue1
 1188 5100              mov A,[_hannValue1]
 118A 62D000            mov REG[0xd0],>__r0
 118D 3F00              mvi [__r1],A
 118F 62D000            mov REG[0xd0],>_hannValue1
 1192 5101              mov A,[_hannValue1+1]
 1194 62D000            mov REG[0xd0],>__r0
 1197 3F00              mvi [__r1],A
 1199 62D000            mov REG[0xd0],>_hannValue1
 119C 5102              mov A,[_hannValue1+2]
 119E 62D000            mov REG[0xd0],>__r0
 11A1 3F00              mvi [__r1],A
 11A3 62D000            mov REG[0xd0],>_hannValue1
 11A6 5103              mov A,[_hannValue1+3]
 11A8 62D000            mov REG[0xd0],>__r0
 11AB 3F00              mvi [__r1],A
 11AD                   .dbline 115
 11AD           ;                               DUALADC_ClearFlag();
 11AD 10                push X
 11AE 7C0000            xcall _DUALADC_ClearFlag
 11B1 20                pop X
 11B2                   .dbline 116
 11B2           ;                               i++;
 11B2 7701              inc [X+1]
 11B4 0F0000            adc [X+0],0
 11B7                   .dbline 117
 11B7           ;                       }
 11B7           L49:
 11B7                   .dbline 118
 11B7           ;               }
 11B7           L44:
 11B7                   .dbline 101
 11B7 3D0000            cmp [X+0],0
 11BA BD5B              jnz L47
 11BC 3D0140            cmp [X+1],64
 11BF BD56              jnz L47
 11C1           X41:
 11C1                   .dbline 119
 11C1           ;               FFT(1,exponent,data_re,data_imm,mod);
 11C1 5042              mov A,66
 11C3 08                push A
 11C4 5080              mov A,-128
 11C6 08                push A
 11C7 5000              mov A,0
 11C9 08                push A
 11CA 08                push A
 11CB 7C0000            xcall _logf
 11CE 62D000            mov REG[0xd0],>__r0
 11D1 5100              mov A,[__r0]
 11D3 540C              mov [X+12],A
 11D5 5100              mov A,[__r1]
 11D7 540D              mov [X+13],A
 11D9 5100              mov A,[__r2]
 11DB 540E              mov [X+14],A
 11DD 5100              mov A,[__r3]
 11DF 540F              mov [X+15],A
 11E1 5040              mov A,64
 11E3 08                push A
 11E4 5000              mov A,0
 11E6 08                push A
 11E7 08                push A
 11E8 08                push A
 11E9 7C0000            xcall _logf
 11EC 38F8              add SP,-8
 11EE 5000              mov A,>_mod
 11F0 08                push A
 11F1 5000              mov A,<_mod
 11F3 08                push A
 11F4 5000              mov A,>_data_imm
 11F6 08                push A
 11F7 5000              mov A,<_data_imm
 11F9 08                push A
 11FA 5000              mov A,>_data_re
 11FC 08                push A
 11FD 5000              mov A,<_data_re
 11FF 08                push A
 1200 62D000            mov REG[0xd0],>__r0
 1203 5100              mov A,[__r0]
 1205 08                push A
 1206 5100              mov A,[__r1]
 1208 08                push A
 1209 5100              mov A,[__r2]
 120B 08                push A
 120C 5100              mov A,[__r3]
 120E 08                push A
 120F 520C              mov A,[X+12]
 1211 08                push A
 1212 520D              mov A,[X+13]
 1214 08                push A
 1215 520E              mov A,[X+14]
 1217 08                push A
 1218 520F              mov A,[X+15]
 121A 08                push A
 121B 7C0000            xcall __fpdiv
 121E 18                pop A
 121F 5300              mov [__r3],A
 1221 18                pop A
 1222 5300              mov [__r2],A
 1224 18                pop A
 1225 5300              mov [__r1],A
 1227 18                pop A
 1228 38FC              add SP,-4
 122A 08                push A
 122B 5100              mov A,[__r1]
 122D 08                push A
 122E 5100              mov A,[__r2]
 1230 08                push A
 1231 5100              mov A,[__r3]
 1233 08                push A
 1234 5000              mov A,0
 1236 08                push A
 1237 5001              mov A,1
 1239 08                push A
 123A 7C0000            xcall _FFT
 123D 38F4              add SP,-12
 123F                   .dbline 120
 123F           ;               serialDataOut();
 123F 9004              xcall _serialDataOut
 1241                   .dbline 122
 1241           ; 
 1241           ;       return ;
 1241                   .dbline -2
 1241           L38:
 1241 38F0              add SP,-16
 1243 20                pop X
 1244                   .dbline 0 ; func end
 1244 7F                ret
 1245                   .dbsym l temp1 10 pc
 1245                   .dbsym l temp 6 A[4:4]c
 1245                   .dbsym l Status 4 I
 1245                   .dbsym l flag 2 I
 1245                   .dbsym l i 0 I
 1245                   .dbend
 1245                   .dbfunc e serialDataOut _serialDataOut fV
 1245           ;           temp -> X+6
 1245           ;         Status -> X+4
 1245           ;          temp1 -> X+2
 1245           ;              i -> X+0
 1245           _serialDataOut::
 1245                   .dbline -1
 1245 10                push X
 1246 4F                mov X,SP
 1247 380A              add SP,10
 1249                   .dbline 127
 1249           ; }
 1249           ; 
 1249           ; 
 1249           ; void serialDataOut(void )
 1249           ; {
 1249                   .dbline 130
 1249           ;       char temp[4],*temp1;
 1249           ;       int i,Status;
 1249           ;       UART_CPutString("\n\rFFT OUTPUT:\n\r");
 1249 10                push X
 124A 5055              mov A,>L37
 124C 08                push A
 124D 5055              mov A,<L37
 124F 5C                mov X,A
 1250 18                pop A
 1251 7C0000            xcall _UART_CPutString
 1254 20                pop X
 1255                   .dbline 131
 1255           ;       for (i=0;i<N_points;i++)
 1255 560100            mov [X+1],0
 1258 560000            mov [X+0],0
 125B           L53:
 125B                   .dbline 132
 125B           ;       {
 125B                   .dbline 134
 125B           ;               
 125B           ;               UART_CPutString("{");
 125B 10                push X
 125C 5053              mov A,>L57
 125E 08                push A
 125F 5053              mov A,<L57
 1261 5C                mov X,A
 1262 18                pop A
 1263 7C0000            xcall _UART_CPutString
 1266 20                pop X
 1267                   .dbline 136
 1267           ;               //itoa(temp,mod[i],10);
 1267           ;               temp1 = ftoa(mod[i], &Status);
 1267 62D000            mov REG[0xd0],>__r0
 126A 5A00              mov [__r1],X
 126C 060004            add [__r1],4
 126F 5007              mov A,7
 1271 08                push A
 1272 5100              mov A,[__r1]
 1274 08                push A
 1275 5201              mov A,[X+1]
 1277 5300              mov [__r1],A
 1279 5200              mov A,[X+0]
 127B 5300              mov [__r0],A
 127D 6500              asl [__r1]
 127F 6B00              rlc [__r0]
 1281 6500              asl [__r1]
 1283 6B00              rlc [__r0]
 1285 060000            add [__r1],<_mod
 1288 0E0000            adc [__r0],>_mod
 128B 5100              mov A,[__r0]
 128D 60D4              mov REG[0xd4],A
 128F 3E00              mvi A,[__r1]
 1291 5300              mov [__r4],A
 1293 3E00              mvi A,[__r1]
 1295 5300              mov [__r5],A
 1297 3E00              mvi A,[__r1]
 1299 5300              mov [__r6],A
 129B 3E00              mvi A,[__r1]
 129D 5300              mov [__r7],A
 129F 5100              mov A,[__r4]
 12A1 08                push A
 12A2 5100              mov A,[__r5]
 12A4 08                push A
 12A5 5100              mov A,[__r6]
 12A7 08                push A
 12A8 5100              mov A,[__r7]
 12AA 08                push A
 12AB 7C0000            xcall _ftoa
 12AE 38FA              add SP,-6
 12B0 62D000            mov REG[0xd0],>__r0
 12B3 5100              mov A,[__r1]
 12B5 5403              mov [X+3],A
 12B7 5100              mov A,[__r0]
 12B9 5402              mov [X+2],A
 12BB                   .dbline 137
 12BB           ;               UART_PutString(temp1);
 12BB 10                push X
 12BC 5202              mov A,[X+2]
 12BE 08                push A
 12BF 5203              mov A,[X+3]
 12C1 5C                mov X,A
 12C2 18                pop A
 12C3 7C0000            xcall _UART_PutString
 12C6                   .dbline 139
 12C6           ;               //UART_PutString(temp);
 12C6           ;               UART_CPutString("},");
 12C6 5050              mov A,>L58
 12C8 08                push A
 12C9 5050              mov A,<L58
 12CB 5C                mov X,A
 12CC 18                pop A
 12CD 7C0000            xcall _UART_CPutString
 12D0 20                pop X
 12D1                   .dbline 141
 12D1           ;               
 12D1           ;       }
 12D1           L54:
 12D1                   .dbline 131
 12D1 7701              inc [X+1]
 12D3 0F0000            adc [X+0],0
 12D6                   .dbline 131
 12D6 5201              mov A,[X+1]
 12D8 1140              sub A,64
 12DA 5200              mov A,[X+0]
 12DC 3180              xor A,-128
 12DE 1980              sbb A,(0 ^ 0x80)
 12E0 CF7A              jc L53
 12E2           X42:
 12E2                   .dbline 142
 12E2           ;       UART_CPutString("\n\r");
 12E2 10                push X
 12E3 504D              mov A,>L59
 12E5 08                push A
 12E6 504D              mov A,<L59
 12E8 5C                mov X,A
 12E9 18                pop A
 12EA 7C0000            xcall _UART_CPutString
 12ED 20                pop X
 12EE                   .dbline -2
 12EE           L52:
 12EE 38F6              add SP,-10
 12F0 20                pop X
 12F1                   .dbline 0 ; func end
 12F1 7F                ret
 12F2                   .dbsym l temp 6 A[4:4]c
 12F2                   .dbsym l Status 4 I
 12F2                   .dbsym l temp1 2 pc
 12F2                   .dbsym l i 0 I
 12F2                   .dbend
 12F2                   .dbfunc e matlabOut _matlabOut fV
 12F2           ;              i -> X+6
 12F2           ;         Status -> X+4
 12F2           ;          temp1 -> X+2
 12F2           ;              j -> X+0
 12F2           _matlabOut::
 12F2                   .dbline -1
 12F2 10                push X
 12F3 4F                mov X,SP
 12F4 3808              add SP,8
 12F6                   .dbline 147
 12F6           ;       
 12F6           ; }
 12F6           ; 
 12F6           ; void matlabOut(void )
 12F6           ; {
 12F6                   .dbline 150
 12F6           ;       int i,j,Status;
 12F6           ;       char *temp1;
 12F6           ;       for(i=0;i<4;i++)
 12F6 560700            mov [X+7],0
 12F9 560600            mov [X+6],0
 12FC           L61:
 12FC                   .dbline 151
 12FC           ;       {
 12FC                   .dbline 152
 12FC           ;               for(j=0;j<512;j++)
 12FC 560100            mov [X+1],0
 12FF 560000            mov [X+0],0
 1302                   .dbline 153
 1302           ;               {
 1302           L69:
 1302                   .dbline 154
 1302           ;                       while(DUALADC_fIsDataAvailable() == 0); 
 1302           L70:
 1302                   .dbline 154
 1302 10                push X
 1303 7C0000            xcall _DUALADC_fIsDataAvailable
 1306 20                pop X
 1307 62D000            mov REG[0xd0],>__r0
 130A 3900              cmp A,0
 130C AFF5              jz L69
 130E                   .dbline 155
 130E           ;                       hannValue = DUALADC_iGetData1ClearFlag();
 130E 10                push X
 130F 7C0000            xcall _DUALADC_iGetData1ClearFlag
 1312 62D000            mov REG[0xd0],>__r0
 1315 5A00              mov [__r0],X
 1317 20                pop X
 1318 62D000            mov REG[0xd0],>_hannValue
 131B 5303              mov [_hannValue+3],A
 131D 62D000            mov REG[0xd0],>__r0
 1320 5100              mov A,[__r0]
 1322 62D000            mov REG[0xd0],>_hannValue
 1325 5302              mov [_hannValue+2],A
 1327 470280            tst [_hannValue+2],-128
 132A A009              jz X43
 132C 5501FF            mov [_hannValue+1],-1
 132F 5500FF            mov [_hannValue],-1
 1332 800A              jmp X44
 1334           X43:
 1334 62D000            mov REG[0xd0],>_hannValue
 1337 550100            mov [_hannValue+1],0
 133A 550000            mov [_hannValue],0
 133D           X44:
 133D 62D000            mov REG[0xd0],>_hannValue
 1340 5100              mov A,[_hannValue]
 1342 08                push A
 1343 5101              mov A,[_hannValue+1]
 1345 08                push A
 1346 5102              mov A,[_hannValue+2]
 1348 08                push A
 1349 5103              mov A,[_hannValue+3]
 134B 08                push A
 134C 62D000            mov REG[0xd0],>__r0
 134F 7C0000            xcall __long2fp
 1352 18                pop A
 1353 62D000            mov REG[0xd0],>_hannValue
 1356 5303              mov [_hannValue+3],A
 1358 18                pop A
 1359 5302              mov [_hannValue+2],A
 135B 18                pop A
 135C 5301              mov [_hannValue+1],A
 135E 18                pop A
 135F 5300              mov [_hannValue],A
 1361                   .dbline 156
 1361           ;                       hannMul = 0.5*(1-cos(0.0494*j));
 1361 62D000            mov REG[0xd0],>__r0
 1364 5201              mov A,[X+1]
 1366 5300              mov [__r3],A
 1368 5200              mov A,[X+0]
 136A 5300              mov [__r2],A
 136C 470080            tst [__r2],-128
 136F A009              jz X45
 1371 5500FF            mov [__r1],-1
 1374 5500FF            mov [__r0],-1
 1377 800A              jmp X46
 1379           X45:
 1379 62D000            mov REG[0xd0],>__r0
 137C 550000            mov [__r1],0
 137F 550000            mov [__r0],0
 1382           X46:
 1382 62D000            mov REG[0xd0],>__r0
 1385 5100              mov A,[__r0]
 1387 08                push A
 1388 5100              mov A,[__r1]
 138A 08                push A
 138B 5100              mov A,[__r2]
 138D 08                push A
 138E 5100              mov A,[__r3]
 1390 08                push A
 1391 7C0000            xcall __long2fp
 1394 18                pop A
 1395 5300              mov [__r3],A
 1397 18                pop A
 1398 5300              mov [__r2],A
 139A 18                pop A
 139B 5300              mov [__r1],A
 139D 18                pop A
 139E 08                push A
 139F 5100              mov A,[__r1]
 13A1 08                push A
 13A2 5100              mov A,[__r2]
 13A4 08                push A
 13A5 5100              mov A,[__r3]
 13A7 08                push A
 13A8 503D              mov A,61
 13AA 08                push A
 13AB 504A              mov A,74
 13AD 08                push A
 13AE 5057              mov A,87
 13B0 08                push A
 13B1 50A8              mov A,-88
 13B3 08                push A
 13B4 7C0000            xcall __fpmul
 13B7 18                pop A
 13B8 5300              mov [__r3],A
 13BA 18                pop A
 13BB 5300              mov [__r2],A
 13BD 18                pop A
 13BE 5300              mov [__r1],A
 13C0 18                pop A
 13C1 38FC              add SP,-4
 13C3 08                push A
 13C4 5100              mov A,[__r1]
 13C6 08                push A
 13C7 5100              mov A,[__r2]
 13C9 08                push A
 13CA 5100              mov A,[__r3]
 13CC 08                push A
 13CD 7C0000            xcall _cosf
 13D0 38FC              add SP,-4
 13D2 62D000            mov REG[0xd0],>__r0
 13D5 5100              mov A,[__r0]
 13D7 08                push A
 13D8 5100              mov A,[__r1]
 13DA 08                push A
 13DB 5100              mov A,[__r2]
 13DD 08                push A
 13DE 5100              mov A,[__r3]
 13E0 08                push A
 13E1 503F              mov A,63
 13E3 08                push A
 13E4 5080              mov A,-128
 13E6 08                push A
 13E7 5000              mov A,0
 13E9 08                push A
 13EA 08                push A
 13EB 7C0000            xcall __fpsub
 13EE 18                pop A
 13EF 5300              mov [__r3],A
 13F1 18                pop A
 13F2 5300              mov [__r2],A
 13F4 18                pop A
 13F5 5300              mov [__r1],A
 13F7 18                pop A
 13F8 38FC              add SP,-4
 13FA 08                push A
 13FB 5100              mov A,[__r1]
 13FD 08                push A
 13FE 5100              mov A,[__r2]
 1400 08                push A
 1401 5100              mov A,[__r3]
 1403 08                push A
 1404 503F              mov A,63
 1406 08                push A
 1407 5000              mov A,0
 1409 08                push A
 140A 08                push A
 140B 08                push A
 140C 7C0000            xcall __fpmul
 140F 18                pop A
 1410 62D000            mov REG[0xd0],>_hannMul
 1413 5303              mov [_hannMul+3],A
 1415 18                pop A
 1416 5302              mov [_hannMul+2],A
 1418 18                pop A
 1419 5301              mov [_hannMul+1],A
 141B 18                pop A
 141C 5300              mov [_hannMul],A
 141E 38FC              add SP,-4
 1420                   .dbline 157
 1420           ;                       hannValue = hannMul * hannValue;
 1420 62D000            mov REG[0xd0],>_hannValue
 1423 5100              mov A,[_hannValue]
 1425 08                push A
 1426 5101              mov A,[_hannValue+1]
 1428 08                push A
 1429 5102              mov A,[_hannValue+2]
 142B 08                push A
 142C 5103              mov A,[_hannValue+3]
 142E 08                push A
 142F 62D000            mov REG[0xd0],>_hannMul
 1432 5100              mov A,[_hannMul]
 1434 08                push A
 1435 5101              mov A,[_hannMul+1]
 1437 08                push A
 1438 5102              mov A,[_hannMul+2]
 143A 08                push A
 143B 5103              mov A,[_hannMul+3]
 143D 08                push A
 143E 62D000            mov REG[0xd0],>__r0
 1441 7C0000            xcall __fpmul
 1444 18                pop A
 1445 62D000            mov REG[0xd0],>_hannValue
 1448 5303              mov [_hannValue+3],A
 144A 18                pop A
 144B 5302              mov [_hannValue+2],A
 144D 18                pop A
 144E 5301              mov [_hannValue+1],A
 1450 18                pop A
 1451 5300              mov [_hannValue],A
 1453 38FC              add SP,-4
 1455                   .dbline 158
 1455           ;                       temp1 = ftoa(hannValue, &Status);
 1455 62D000            mov REG[0xd0],>__r0
 1458 5A00              mov [__r1],X
 145A 060004            add [__r1],4
 145D 5007              mov A,7
 145F 08                push A
 1460 5100              mov A,[__r1]
 1462 08                push A
 1463 62D000            mov REG[0xd0],>_hannValue
 1466 5100              mov A,[_hannValue]
 1468 08                push A
 1469 5101              mov A,[_hannValue+1]
 146B 08                push A
 146C 5102              mov A,[_hannValue+2]
 146E 08                push A
 146F 5103              mov A,[_hannValue+3]
 1471 08                push A
 1472 7C0000            xcall _ftoa
 1475 38FA              add SP,-6
 1477 62D000            mov REG[0xd0],>__r0
 147A 5100              mov A,[__r1]
 147C 5403              mov [X+3],A
 147E 5100              mov A,[__r0]
 1480 5402              mov [X+2],A
 1482                   .dbline 159
 1482           ;                       UART_PutString(temp1);
 1482 10                push X
 1483 5202              mov A,[X+2]
 1485 08                push A
 1486 5203              mov A,[X+3]
 1488 5C                mov X,A
 1489 18                pop A
 148A 7C0000            xcall _UART_PutString
 148D                   .dbline 160
 148D           ;                       UART_CPutString("\n\r");
 148D 504D              mov A,>L59
 148F 08                push A
 1490 504D              mov A,<L59
 1492 5C                mov X,A
 1493 18                pop A
 1494 7C0000            xcall _UART_CPutString
 1497 20                pop X
 1498                   .dbline 162
 1498           ;                       
 1498           ;               }
 1498           L66:
 1498                   .dbline 152
 1498 7701              inc [X+1]
 149A 0F0000            adc [X+0],0
 149D                   .dbline 152
 149D 5201              mov A,[X+1]
 149F 1100              sub A,0
 14A1 5200              mov A,[X+0]
 14A3 3180              xor A,-128
 14A5 1982              sbb A,(2 ^ 0x80)
 14A7 CE5A              jc L70
 14A9           X47:
 14A9                   .dbline 163
 14A9           ;       }
 14A9           L62:
 14A9                   .dbline 150
 14A9 7707              inc [X+7]
 14AB 0F0600            adc [X+6],0
 14AE                   .dbline 150
 14AE 5207              mov A,[X+7]
 14B0 1104              sub A,4
 14B2 5206              mov A,[X+6]
 14B4 3180              xor A,-128
 14B6 1980              sbb A,(0 ^ 0x80)
 14B8 CE43              jc L61
 14BA           X48:
 14BA                   .dbline -2
 14BA           L60:
 14BA 38F8              add SP,-8
 14BC 20                pop X
 14BD                   .dbline 0 ; func end
 14BD 7F                ret
 14BE                   .dbsym l i 6 I
 14BE                   .dbsym l Status 4 I
 14BE                   .dbsym l temp1 2 pc
 14BE                   .dbsym l j 0 I
 14BE                   .dbend
 14BE                   .dbfunc e LCD_Clear _LCD_Clear fV
 14BE           _LCD_Clear::
 14BE                   .dbline -1
 14BE                   .dbline 167
 14BE           ; }
 14BE           ; 
 14BE           ; void LCD_Clear(void)
 14BE           ; {
 14BE                   .dbline 168
 14BE           ;       LCD_Position(0,0);
 14BE 10                push X
 14BF 5000              mov A,0
 14C1 5700              mov X,0
 14C3 7C0000            xcall _LCD_Position
 14C6                   .dbline 169
 14C6           ;       LCD_PrCString("                ");      
 14C6 503C              mov A,>L73
 14C8 08                push A
 14C9 503C              mov A,<L73
 14CB 5C                mov X,A
 14CC 18                pop A
 14CD 7C0000            xcall _LCD_PrCString
 14D0                   .dbline 170
 14D0           ;       LCD_Position(1,0);
 14D0 5700              mov X,0
 14D2 5001              mov A,1
 14D4 7C0000            xcall _LCD_Position
 14D7                   .dbline 171
 14D7           ;       LCD_PrCString("                ");      
 14D7 503C              mov A,>L73
 14D9 08                push A
 14DA 503C              mov A,<L73
 14DC 5C                mov X,A
 14DD 18                pop A
 14DE 7C0000            xcall _LCD_PrCString
 14E1 20                pop X
 14E2                   .dbline -2
 14E2           L72:
 14E2                   .dbline 0 ; func end
 14E2 7F                ret
 14E3                   .dbend
 14E3                   .dbfunc e soundLocalize _soundLocalize fV
 14E3           _soundLocalize::
 14E3                   .dbline -1
 14E3 10                push X
 14E4 4F                mov X,SP
 14E5 3804              add SP,4
 14E7                   .dbline 175
 14E7           ; }
 14E7           ; 
 14E7           ; void soundLocalize(void )
 14E7           ; {
 14E7                   .dbline 176
 14E7           ;       getFFTOutput();
 14E7 994D              xcall _getFFTOutput
 14E9                   .dbline 177
 14E9           ;       FFT(1,exponent,data_re1,data_imm1,mod);
 14E9 5042              mov A,66
 14EB 08                push A
 14EC 5080              mov A,-128
 14EE 08                push A
 14EF 5000              mov A,0
 14F1 08                push A
 14F2 08                push A
 14F3 7C0000            xcall _logf
 14F6 62D000            mov REG[0xd0],>__r0
 14F9 5100              mov A,[__r0]
 14FB 5400              mov [X+0],A
 14FD 5100              mov A,[__r1]
 14FF 5401              mov [X+1],A
 1501 5100              mov A,[__r2]
 1503 5402              mov [X+2],A
 1505 5100              mov A,[__r3]
 1507 5403              mov [X+3],A
 1509 5040              mov A,64
 150B 08                push A
 150C 5000              mov A,0
 150E 08                push A
 150F 08                push A
 1510 08                push A
 1511 7C0000            xcall _logf
 1514 38F8              add SP,-8
 1516 5000              mov A,>_mod
 1518 08                push A
 1519 5000              mov A,<_mod
 151B 08                push A
 151C 5000              mov A,>_data_imm1
 151E 08                push A
 151F 5000              mov A,<_data_imm1
 1521 08                push A
 1522 5000              mov A,>_data_re1
 1524 08                push A
 1525 5000              mov A,<_data_re1
 1527 08                push A
 1528 62D000            mov REG[0xd0],>__r0
 152B 5100              mov A,[__r0]
 152D 08                push A
 152E 5100              mov A,[__r1]
 1530 08                push A
 1531 5100              mov A,[__r2]
 1533 08                push A
 1534 5100              mov A,[__r3]
 1536 08                push A
 1537 5200              mov A,[X+0]
 1539 08                push A
 153A 5201              mov A,[X+1]
 153C 08                push A
 153D 5202              mov A,[X+2]
 153F 08                push A
 1540 5203              mov A,[X+3]
 1542 08                push A
 1543 7C0000            xcall __fpdiv
 1546 18                pop A
 1547 5300              mov [__r3],A
 1549 18                pop A
 154A 5300              mov [__r2],A
 154C 18                pop A
 154D 5300              mov [__r1],A
 154F 18                pop A
 1550 38FC              add SP,-4
 1552 08                push A
 1553 5100              mov A,[__r1]
 1555 08                push A
 1556 5100              mov A,[__r2]
 1558 08                push A
 1559 5100              mov A,[__r3]
 155B 08                push A
 155C 5000              mov A,0
 155E 08                push A
 155F 5001              mov A,1
 1561 08                push A
 1562 7C0000            xcall _FFT
 1565 38F4              add SP,-12
 1567                   .dbline 178
 1567           ;       serialDataOut();
 1567 9CDC              xcall _serialDataOut
 1569                   .dbline 179
 1569           ;       cordic1();
 1569 9007              xcall _cordic1
 156B                   .dbline 180
 156B           ;       max_likelihood();
 156B 7C217F            xcall _max_likelihood
 156E                   .dbline -2
 156E           L74:
 156E 38FC              add SP,-4
 1570 20                pop X
 1571                   .dbline 0 ; func end
 1571 7F                ret
 1572                   .dbend
 1572                   .dbfunc e cordic1 _cordic1 fV
 1572           ;          value -> X+6
 1572           ;            neg -> X+4
 1572           ;         offset -> X+2
 1572           ;              i -> X+0
 1572           _cordic1::
 1572                   .dbline -1
 1572 10                push X
 1573 4F                mov X,SP
 1574 380A              add SP,10
 1576                   .dbline 185
 1576           ;       
 1576           ; }
 1576           ;       
 1576           ; void cordic1(void )                   //CORDIC
 1576           ; {
 1576                   .dbline 188
 1576           ;       int neg, offset,value,i;
 1576           ;       
 1576           ;       for(i=0;i<32;i++)
 1576 560100            mov [X+1],0
 1579 560000            mov [X+0],0
 157C           L76:
 157C                   .dbline 189
 157C           ;       {               
 157C                   .dbline 190
 157C           ;       neg=0;
 157C 560500            mov [X+5],0
 157F 560400            mov [X+4],0
 1582                   .dbline 191
 1582           ;       offset=0;
 1582 560300            mov [X+3],0
 1585 560200            mov [X+2],0
 1588                   .dbline 192
 1588           ;       value=0;
 1588 560700            mov [X+7],0
 158B 560600            mov [X+6],0
 158E                   .dbline 194
 158E           ;       
 158E           ;       if((data_imm[i]<0) && (data_re[i]<0))
 158E 62D000            mov REG[0xd0],>__r0
 1591 5201              mov A,[X+1]
 1593 5300              mov [__r1],A
 1595 5200              mov A,[X+0]
 1597 5300              mov [__r0],A
 1599 6500              asl [__r1]
 159B 6B00              rlc [__r0]
 159D 6500              asl [__r1]
 159F 6B00              rlc [__r0]
 15A1 5100              mov A,[__r1]
 15A3 0100              add A,<_data_imm
 15A5 5300              mov [__r3],A
 15A7 5100              mov A,[__r0]
 15A9 0900              adc A,>_data_imm
 15AB 60D4              mov REG[0xd4],A
 15AD 3E00              mvi A,[__r3]
 15AF 5300              mov [__r4],A
 15B1 3E00              mvi A,[__r3]
 15B3 5300              mov [__r5],A
 15B5 3E00              mvi A,[__r3]
 15B7 5300              mov [__r6],A
 15B9 3E00              mvi A,[__r3]
 15BB 5300              mov [__r7],A
 15BD 5000              mov A,0
 15BF 08                push A
 15C0 08                push A
 15C1 08                push A
 15C2 08                push A
 15C3 5100              mov A,[__r4]
 15C5 08                push A
 15C6 5100              mov A,[__r5]
 15C8 08                push A
 15C9 5100              mov A,[__r6]
 15CB 08                push A
 15CC 5100              mov A,[__r7]
 15CE 08                push A
 15CF 7C0000            xcall __fpcmp
 15D2 38F8              add SP,-8
 15D4 3900              cmp A,0
 15D6 A0CE              jz L80
 15D8 3901              cmp A,1
 15DA A0CA              jz L80
 15DC 060000            add [__r1],<_data_re
 15DF 0E0000            adc [__r0],>_data_re
 15E2 5100              mov A,[__r0]
 15E4 60D4              mov REG[0xd4],A
 15E6 3E00              mvi A,[__r1]
 15E8 5300              mov [__r4],A
 15EA 3E00              mvi A,[__r1]
 15EC 5300              mov [__r5],A
 15EE 3E00              mvi A,[__r1]
 15F0 5300              mov [__r6],A
 15F2 3E00              mvi A,[__r1]
 15F4 5300              mov [__r7],A
 15F6 5000              mov A,0
 15F8 08                push A
 15F9 08                push A
 15FA 08                push A
 15FB 08                push A
 15FC 5100              mov A,[__r4]
 15FE 08                push A
 15FF 5100              mov A,[__r5]
 1601 08                push A
 1602 5100              mov A,[__r6]
 1604 08                push A
 1605 5100              mov A,[__r7]
 1607 08                push A
 1608 7C0000            xcall __fpcmp
 160B 38F8              add SP,-8
 160D 3900              cmp A,0
 160F A095              jz L80
 1611 3901              cmp A,1
 1613 A091              jz L80
 1615                   .dbline 196
 1615           ;       {
 1615           ;               data_re[i]=-data_re[i];
 1615                   .dbline 196
 1615 5201              mov A,[X+1]
 1617 5300              mov [__r1],A
 1619 5200              mov A,[X+0]
 161B 5300              mov [__r0],A
 161D 6500              asl [__r1]
 161F 6B00              rlc [__r0]
 1621 6500              asl [__r1]
 1623 6B00              rlc [__r0]
 1625 060000            add [__r1],<_data_re
 1628 0E0000            adc [__r0],>_data_re
 162B 5100              mov A,[__r0]
 162D 60D4              mov REG[0xd4],A
 162F 3E00              mvi A,[__r1]
 1631 5300              mov [__r4],A
 1633 3E00              mvi A,[__r1]
 1635 5300              mov [__r5],A
 1637 3E00              mvi A,[__r1]
 1639 5300              mov [__r6],A
 163B 3E00              mvi A,[__r1]
 163D 160004            sub [__r1],4
 1640 5300              mov [__r7],A
 1642 360080            xor [__r4],-128
 1645 5100              mov A,[__r0]
 1647 60D5              mov REG[0xd5],A
 1649 5100              mov A,[__r4]
 164B 3F00              mvi [__r1],A
 164D 5100              mov A,[__r5]
 164F 3F00              mvi [__r1],A
 1651 5100              mov A,[__r6]
 1653 3F00              mvi [__r1],A
 1655 5100              mov A,[__r7]
 1657 3F00              mvi [__r1],A
 1659                   .dbline 197
 1659           ;               data_imm[i]=-data_imm[i];
 1659 5201              mov A,[X+1]
 165B 5300              mov [__r1],A
 165D 5200              mov A,[X+0]
 165F 5300              mov [__r0],A
 1661 6500              asl [__r1]
 1663 6B00              rlc [__r0]
 1665 6500              asl [__r1]
 1667 6B00              rlc [__r0]
 1669 060000            add [__r1],<_data_imm
 166C 0E0000            adc [__r0],>_data_imm
 166F 5100              mov A,[__r0]
 1671 60D4              mov REG[0xd4],A
 1673 3E00              mvi A,[__r1]
 1675 5300              mov [__r4],A
 1677 3E00              mvi A,[__r1]
 1679 5300              mov [__r5],A
 167B 3E00              mvi A,[__r1]
 167D 5300              mov [__r6],A
 167F 3E00              mvi A,[__r1]
 1681 160004            sub [__r1],4
 1684 5300              mov [__r7],A
 1686 360080            xor [__r4],-128
 1689 5100              mov A,[__r0]
 168B 60D5              mov REG[0xd5],A
 168D 5100              mov A,[__r4]
 168F 3F00              mvi [__r1],A
 1691 5100              mov A,[__r5]
 1693 3F00              mvi [__r1],A
 1695 5100              mov A,[__r6]
 1697 3F00              mvi [__r1],A
 1699 5100              mov A,[__r7]
 169B 3F00              mvi [__r1],A
 169D                   .dbline 198
 169D           ;               offset=3.142;
 169D 560303            mov [X+3],3
 16A0 560200            mov [X+2],0
 16A3                   .dbline 199
 16A3           ;       }
 16A3 81B1              xjmp L81
 16A5           L80:
 16A5                   .dbline 200
 16A5           ;       else if((data_imm[i]<0) && (data_re[i]>0))
 16A5 62D000            mov REG[0xd0],>__r0
 16A8 5201              mov A,[X+1]
 16AA 5300              mov [__r1],A
 16AC 5200              mov A,[X+0]
 16AE 5300              mov [__r0],A
 16B0 6500              asl [__r1]
 16B2 6B00              rlc [__r0]
 16B4 6500              asl [__r1]
 16B6 6B00              rlc [__r0]
 16B8 5100              mov A,[__r1]
 16BA 0100              add A,<_data_imm
 16BC 5300              mov [__r3],A
 16BE 5100              mov A,[__r0]
 16C0 0900              adc A,>_data_imm
 16C2 60D4              mov REG[0xd4],A
 16C4 3E00              mvi A,[__r3]
 16C6 5300              mov [__r4],A
 16C8 3E00              mvi A,[__r3]
 16CA 5300              mov [__r5],A
 16CC 3E00              mvi A,[__r3]
 16CE 5300              mov [__r6],A
 16D0 3E00              mvi A,[__r3]
 16D2 5300              mov [__r7],A
 16D4 5000              mov A,0
 16D6 08                push A
 16D7 08                push A
 16D8 08                push A
 16D9 08                push A
 16DA 5100              mov A,[__r4]
 16DC 08                push A
 16DD 5100              mov A,[__r5]
 16DF 08                push A
 16E0 5100              mov A,[__r6]
 16E2 08                push A
 16E3 5100              mov A,[__r7]
 16E5 08                push A
 16E6 7C0000            xcall __fpcmp
 16E9 38F8              add SP,-8
 16EB 3900              cmp A,0
 16ED A090              jz L82
 16EF 3901              cmp A,1
 16F1 A08C              jz L82
 16F3 060000            add [__r1],<_data_re
 16F6 0E0000            adc [__r0],>_data_re
 16F9 5100              mov A,[__r0]
 16FB 60D4              mov REG[0xd4],A
 16FD 3E00              mvi A,[__r1]
 16FF 5300              mov [__r4],A
 1701 3E00              mvi A,[__r1]
 1703 5300              mov [__r5],A
 1705 3E00              mvi A,[__r1]
 1707 5300              mov [__r6],A
 1709 3E00              mvi A,[__r1]
 170B 5300              mov [__r7],A
 170D 5000              mov A,0
 170F 08                push A
 1710 08                push A
 1711 08                push A
 1712 08                push A
 1713 5100              mov A,[__r4]
 1715 08                push A
 1716 5100              mov A,[__r5]
 1718 08                push A
 1719 5100              mov A,[__r6]
 171B 08                push A
 171C 5100              mov A,[__r7]
 171E 08                push A
 171F 7C0000            xcall __fpcmp
 1722 38F8              add SP,-8
 1724 3900              cmp A,0
 1726 A057              jz L82
 1728 3901              cmp A,1
 172A B053              jnz L82
 172C                   .dbline 202
 172C           ;       {
 172C           ;               data_imm[i]=-data_imm[i];
 172C                   .dbline 202
 172C 5201              mov A,[X+1]
 172E 5300              mov [__r1],A
 1730 5200              mov A,[X+0]
 1732 5300              mov [__r0],A
 1734 6500              asl [__r1]
 1736 6B00              rlc [__r0]
 1738 6500              asl [__r1]
 173A 6B00              rlc [__r0]
 173C 060000            add [__r1],<_data_imm
 173F 0E0000            adc [__r0],>_data_imm
 1742 5100              mov A,[__r0]
 1744 60D4              mov REG[0xd4],A
 1746 3E00              mvi A,[__r1]
 1748 5300              mov [__r4],A
 174A 3E00              mvi A,[__r1]
 174C 5300              mov [__r5],A
 174E 3E00              mvi A,[__r1]
 1750 5300              mov [__r6],A
 1752 3E00              mvi A,[__r1]
 1754 160004            sub [__r1],4
 1757 5300              mov [__r7],A
 1759 360080            xor [__r4],-128
 175C 5100              mov A,[__r0]
 175E 60D5              mov REG[0xd5],A
 1760 5100              mov A,[__r4]
 1762 3F00              mvi [__r1],A
 1764 5100              mov A,[__r5]
 1766 3F00              mvi [__r1],A
 1768 5100              mov A,[__r6]
 176A 3F00              mvi [__r1],A
 176C 5100              mov A,[__r7]
 176E 3F00              mvi [__r1],A
 1770                   .dbline 203
 1770           ;               neg=1;
 1770 560501            mov [X+5],1
 1773 560400            mov [X+4],0
 1776                   .dbline 204
 1776           ;               offset=3*1.571;
 1776 560304            mov [X+3],4
 1779 560200            mov [X+2],0
 177C                   .dbline 205
 177C           ;       }
 177C 80D8              xjmp L83
 177E           L82:
 177E                   .dbline 206
 177E           ;       else if((data_imm[i]>0) && (data_re[i]<0))
 177E 62D000            mov REG[0xd0],>__r0
 1781 5201              mov A,[X+1]
 1783 5300              mov [__r1],A
 1785 5200              mov A,[X+0]
 1787 5300              mov [__r0],A
 1789 6500              asl [__r1]
 178B 6B00              rlc [__r0]
 178D 6500              asl [__r1]
 178F 6B00              rlc [__r0]
 1791 5100              mov A,[__r1]
 1793 0100              add A,<_data_imm
 1795 5300              mov [__r3],A
 1797 5100              mov A,[__r0]
 1799 0900              adc A,>_data_imm
 179B 60D4              mov REG[0xd4],A
 179D 3E00              mvi A,[__r3]
 179F 5300              mov [__r4],A
 17A1 3E00              mvi A,[__r3]
 17A3 5300              mov [__r5],A
 17A5 3E00              mvi A,[__r3]
 17A7 5300              mov [__r6],A
 17A9 3E00              mvi A,[__r3]
 17AB 5300              mov [__r7],A
 17AD 5000              mov A,0
 17AF 08                push A
 17B0 08                push A
 17B1 08                push A
 17B2 08                push A
 17B3 5100              mov A,[__r4]
 17B5 08                push A
 17B6 5100              mov A,[__r5]
 17B8 08                push A
 17B9 5100              mov A,[__r6]
 17BB 08                push A
 17BC 5100              mov A,[__r7]
 17BE 08                push A
 17BF 7C0000            xcall __fpcmp
 17C2 38F8              add SP,-8
 17C4 3900              cmp A,0
 17C6 A08E              jz L84
 17C8 3901              cmp A,1
 17CA B08A              jnz L84
 17CC 060000            add [__r1],<_data_re
 17CF 0E0000            adc [__r0],>_data_re
 17D2 5100              mov A,[__r0]
 17D4 60D4              mov REG[0xd4],A
 17D6 3E00              mvi A,[__r1]
 17D8 5300              mov [__r4],A
 17DA 3E00              mvi A,[__r1]
 17DC 5300              mov [__r5],A
 17DE 3E00              mvi A,[__r1]
 17E0 5300              mov [__r6],A
 17E2 3E00              mvi A,[__r1]
 17E4 5300              mov [__r7],A
 17E6 5000              mov A,0
 17E8 08                push A
 17E9 08                push A
 17EA 08                push A
 17EB 08                push A
 17EC 5100              mov A,[__r4]
 17EE 08                push A
 17EF 5100              mov A,[__r5]
 17F1 08                push A
 17F2 5100              mov A,[__r6]
 17F4 08                push A
 17F5 5100              mov A,[__r7]
 17F7 08                push A
 17F8 7C0000            xcall __fpcmp
 17FB 38F8              add SP,-8
 17FD 3900              cmp A,0
 17FF A055              jz L84
 1801 3901              cmp A,1
 1803 A051              jz L84
 1805                   .dbline 208
 1805           ;       {
 1805           ;               data_re[i]=-data_re[i];
 1805                   .dbline 208
 1805 5201              mov A,[X+1]
 1807 5300              mov [__r1],A
 1809 5200              mov A,[X+0]
 180B 5300              mov [__r0],A
 180D 6500              asl [__r1]
 180F 6B00              rlc [__r0]
 1811 6500              asl [__r1]
 1813 6B00              rlc [__r0]
 1815 060000            add [__r1],<_data_re
 1818 0E0000            adc [__r0],>_data_re
 181B 5100              mov A,[__r0]
 181D 60D4              mov REG[0xd4],A
 181F 3E00              mvi A,[__r1]
 1821 5300              mov [__r4],A
 1823 3E00              mvi A,[__r1]
 1825 5300              mov [__r5],A
 1827 3E00              mvi A,[__r1]
 1829 5300              mov [__r6],A
 182B 3E00              mvi A,[__r1]
 182D 160004            sub [__r1],4
 1830 5300              mov [__r7],A
 1832 360080            xor [__r4],-128
 1835 5100              mov A,[__r0]
 1837 60D5              mov REG[0xd5],A
 1839 5100              mov A,[__r4]
 183B 3F00              mvi [__r1],A
 183D 5100              mov A,[__r5]
 183F 3F00              mvi [__r1],A
 1841 5100              mov A,[__r6]
 1843 3F00              mvi [__r1],A
 1845 5100              mov A,[__r7]
 1847 3F00              mvi [__r1],A
 1849                   .dbline 209
 1849           ;               neg=1;
 1849 560501            mov [X+5],1
 184C 560400            mov [X+4],0
 184F                   .dbline 210
 184F           ;               offset=1.571;
 184F 560301            mov [X+3],1
 1852 560200            mov [X+2],0
 1855                   .dbline 211
 1855           ;       }
 1855           L84:
 1855           L83:
 1855           L81:
 1855                   .dbline 214
 1855           ; 
 1855           ;       
 1855           ;       if((data_imm[i]==0) && (data_re[i]>0))
 1855 62D000            mov REG[0xd0],>__r0
 1858 5201              mov A,[X+1]
 185A 5300              mov [__r1],A
 185C 5200              mov A,[X+0]
 185E 5300              mov [__r0],A
 1860 6500              asl [__r1]
 1862 6B00              rlc [__r0]
 1864 6500              asl [__r1]
 1866 6B00              rlc [__r0]
 1868 5100              mov A,[__r1]
 186A 0100              add A,<_data_imm
 186C 5300              mov [__r3],A
 186E 5100              mov A,[__r0]
 1870 0900              adc A,>_data_imm
 1872 60D4              mov REG[0xd4],A
 1874 3E00              mvi A,[__r3]
 1876 5300              mov [__r4],A
 1878 3E00              mvi A,[__r3]
 187A 5300              mov [__r5],A
 187C 3E00              mvi A,[__r3]
 187E 5300              mov [__r6],A
 1880 3E00              mvi A,[__r3]
 1882 5300              mov [__r7],A
 1884 5000              mov A,0
 1886 08                push A
 1887 08                push A
 1888 08                push A
 1889 08                push A
 188A 5100              mov A,[__r4]
 188C 08                push A
 188D 5100              mov A,[__r5]
 188F 08                push A
 1890 5100              mov A,[__r6]
 1892 08                push A
 1893 5100              mov A,[__r7]
 1895 08                push A
 1896 7C0000            xcall __fpcmp
 1899 38F8              add SP,-8
 189B 3900              cmp A,0
 189D B060              jnz L86
 189F 060000            add [__r1],<_data_re
 18A2 0E0000            adc [__r0],>_data_re
 18A5 5100              mov A,[__r0]
 18A7 60D4              mov REG[0xd4],A
 18A9 3E00              mvi A,[__r1]
 18AB 5300              mov [__r4],A
 18AD 3E00              mvi A,[__r1]
 18AF 5300              mov [__r5],A
 18B1 3E00              mvi A,[__r1]
 18B3 5300              mov [__r6],A
 18B5 3E00              mvi A,[__r1]
 18B7 5300              mov [__r7],A
 18B9 5000              mov A,0
 18BB 08                push A
 18BC 08                push A
 18BD 08                push A
 18BE 08                push A
 18BF 5100              mov A,[__r4]
 18C1 08                push A
 18C2 5100              mov A,[__r5]
 18C4 08                push A
 18C5 5100              mov A,[__r6]
 18C7 08                push A
 18C8 5100              mov A,[__r7]
 18CA 08                push A
 18CB 7C0000            xcall __fpcmp
 18CE 38F8              add SP,-8
 18D0 3900              cmp A,0
 18D2 A02B              jz L86
 18D4 3901              cmp A,1
 18D6 B027              jnz L86
 18D8                   .dbline 216
 18D8           ;       {
 18D8           ;               ar1[i]=0;
 18D8                   .dbline 216
 18D8 5201              mov A,[X+1]
 18DA 5300              mov [__r1],A
 18DC 5200              mov A,[X+0]
 18DE 5300              mov [__r0],A
 18E0 6500              asl [__r1]
 18E2 6B00              rlc [__r0]
 18E4 6500              asl [__r1]
 18E6 6B00              rlc [__r0]
 18E8 060000            add [__r1],<_ar1
 18EB 0E0000            adc [__r0],>_ar1
 18EE 5100              mov A,[__r0]
 18F0 60D5              mov REG[0xd5],A
 18F2 5000              mov A,0
 18F4 3F00              mvi [__r1],A
 18F6 3F00              mvi [__r1],A
 18F8 3F00              mvi [__r1],A
 18FA 3F00              mvi [__r1],A
 18FC                   .dbline 217
 18FC           ;       }
 18FC 83D6              xjmp L87
 18FE           L86:
 18FE                   .dbline 218
 18FE           ;       else if((data_imm[i]==0) && (data_re[i]<0))
 18FE 62D000            mov REG[0xd0],>__r0
 1901 5201              mov A,[X+1]
 1903 5300              mov [__r1],A
 1905 5200              mov A,[X+0]
 1907 5300              mov [__r0],A
 1909 6500              asl [__r1]
 190B 6B00              rlc [__r0]
 190D 6500              asl [__r1]
 190F 6B00              rlc [__r0]
 1911 5100              mov A,[__r1]
 1913 0100              add A,<_data_imm
 1915 5300              mov [__r3],A
 1917 5100              mov A,[__r0]
 1919 0900              adc A,>_data_imm
 191B 60D4              mov REG[0xd4],A
 191D 3E00              mvi A,[__r3]
 191F 5300              mov [__r4],A
 1921 3E00              mvi A,[__r3]
 1923 5300              mov [__r5],A
 1925 3E00              mvi A,[__r3]
 1927 5300              mov [__r6],A
 1929 3E00              mvi A,[__r3]
 192B 5300              mov [__r7],A
 192D 5000              mov A,0
 192F 08                push A
 1930 08                push A
 1931 08                push A
 1932 08                push A
 1933 5100              mov A,[__r4]
 1935 08                push A
 1936 5100              mov A,[__r5]
 1938 08                push A
 1939 5100              mov A,[__r6]
 193B 08                push A
 193C 5100              mov A,[__r7]
 193E 08                push A
 193F 7C0000            xcall __fpcmp
 1942 38F8              add SP,-8
 1944 3900              cmp A,0
 1946 B066              jnz L88
 1948 060000            add [__r1],<_data_re
 194B 0E0000            adc [__r0],>_data_re
 194E 5100              mov A,[__r0]
 1950 60D4              mov REG[0xd4],A
 1952 3E00              mvi A,[__r1]
 1954 5300              mov [__r4],A
 1956 3E00              mvi A,[__r1]
 1958 5300              mov [__r5],A
 195A 3E00              mvi A,[__r1]
 195C 5300              mov [__r6],A
 195E 3E00              mvi A,[__r1]
 1960 5300              mov [__r7],A
 1962 5000              mov A,0
 1964 08                push A
 1965 08                push A
 1966 08                push A
 1967 08                push A
 1968 5100              mov A,[__r4]
 196A 08                push A
 196B 5100              mov A,[__r5]
 196D 08                push A
 196E 5100              mov A,[__r6]
 1970 08                push A
 1971 5100              mov A,[__r7]
 1973 08                push A
 1974 7C0000            xcall __fpcmp
 1977 38F8              add SP,-8
 1979 3900              cmp A,0
 197B A031              jz L88
 197D 3901              cmp A,1
 197F A02D              jz L88
 1981                   .dbline 220
 1981           ;       {
 1981           ;               ar1[i]=3.142;
 1981                   .dbline 220
 1981 5201              mov A,[X+1]
 1983 5300              mov [__r1],A
 1985 5200              mov A,[X+0]
 1987 5300              mov [__r0],A
 1989 6500              asl [__r1]
 198B 6B00              rlc [__r0]
 198D 6500              asl [__r1]
 198F 6B00              rlc [__r0]
 1991 060000            add [__r1],<_ar1
 1994 0E0000            adc [__r0],>_ar1
 1997 5100              mov A,[__r0]
 1999 60D5              mov REG[0xd5],A
 199B 5040              mov A,64
 199D 3F00              mvi [__r1],A
 199F 5049              mov A,73
 19A1 3F00              mvi [__r1],A
 19A3 5016              mov A,22
 19A5 3F00              mvi [__r1],A
 19A7 5087              mov A,-121
 19A9 3F00              mvi [__r1],A
 19AB                   .dbline 221
 19AB           ;       }
 19AB 8327              xjmp L89
 19AD           L88:
 19AD                   .dbline 222
 19AD           ;       else if((data_imm[i]>0) && (data_re[i]==0))
 19AD 62D000            mov REG[0xd0],>__r0
 19B0 5201              mov A,[X+1]
 19B2 5300              mov [__r1],A
 19B4 5200              mov A,[X+0]
 19B6 5300              mov [__r0],A
 19B8 6500              asl [__r1]
 19BA 6B00              rlc [__r0]
 19BC 6500              asl [__r1]
 19BE 6B00              rlc [__r0]
 19C0 5100              mov A,[__r1]
 19C2 0100              add A,<_data_imm
 19C4 5300              mov [__r3],A
 19C6 5100              mov A,[__r0]
 19C8 0900              adc A,>_data_imm
 19CA 60D4              mov REG[0xd4],A
 19CC 3E00              mvi A,[__r3]
 19CE 5300              mov [__r4],A
 19D0 3E00              mvi A,[__r3]
 19D2 5300              mov [__r5],A
 19D4 3E00              mvi A,[__r3]
 19D6 5300              mov [__r6],A
 19D8 3E00              mvi A,[__r3]
 19DA 5300              mov [__r7],A
 19DC 5000              mov A,0
 19DE 08                push A
 19DF 08                push A
 19E0 08                push A
 19E1 08                push A
 19E2 5100              mov A,[__r4]
 19E4 08                push A
 19E5 5100              mov A,[__r5]
 19E7 08                push A
 19E8 5100              mov A,[__r6]
 19EA 08                push A
 19EB 5100              mov A,[__r7]
 19ED 08                push A
 19EE 7C0000            xcall __fpcmp
 19F1 38F8              add SP,-8
 19F3 3900              cmp A,0
 19F5 A066              jz L90
 19F7 3901              cmp A,1
 19F9 B062              jnz L90
 19FB 060000            add [__r1],<_data_re
 19FE 0E0000            adc [__r0],>_data_re
 1A01 5100              mov A,[__r0]
 1A03 60D4              mov REG[0xd4],A
 1A05 3E00              mvi A,[__r1]
 1A07 5300              mov [__r4],A
 1A09 3E00              mvi A,[__r1]
 1A0B 5300              mov [__r5],A
 1A0D 3E00              mvi A,[__r1]
 1A0F 5300              mov [__r6],A
 1A11 3E00              mvi A,[__r1]
 1A13 5300              mov [__r7],A
 1A15 5000              mov A,0
 1A17 08                push A
 1A18 08                push A
 1A19 08                push A
 1A1A 08                push A
 1A1B 5100              mov A,[__r4]
 1A1D 08                push A
 1A1E 5100              mov A,[__r5]
 1A20 08                push A
 1A21 5100              mov A,[__r6]
 1A23 08                push A
 1A24 5100              mov A,[__r7]
 1A26 08                push A
 1A27 7C0000            xcall __fpcmp
 1A2A 38F8              add SP,-8
 1A2C 3900              cmp A,0
 1A2E B02D              jnz L90
 1A30                   .dbline 224
 1A30           ;       {
 1A30           ;               ar1[i]=1.571;
 1A30                   .dbline 224
 1A30 5201              mov A,[X+1]
 1A32 5300              mov [__r1],A
 1A34 5200              mov A,[X+0]
 1A36 5300              mov [__r0],A
 1A38 6500              asl [__r1]
 1A3A 6B00              rlc [__r0]
 1A3C 6500              asl [__r1]
 1A3E 6B00              rlc [__r0]
 1A40 060000            add [__r1],<_ar1
 1A43 0E0000            adc [__r0],>_ar1
 1A46 5100              mov A,[__r0]
 1A48 60D5              mov REG[0xd5],A
 1A4A 503F              mov A,63
 1A4C 3F00              mvi [__r1],A
 1A4E 50C9              mov A,-55
 1A50 3F00              mvi [__r1],A
 1A52 5016              mov A,22
 1A54 3F00              mvi [__r1],A
 1A56 5087              mov A,-121
 1A58 3F00              mvi [__r1],A
 1A5A                   .dbline 225
 1A5A           ;       }
 1A5A 8278              xjmp L91
 1A5C           L90:
 1A5C                   .dbline 226
 1A5C           ;       else if((data_imm[i]<0) && (data_re[i]==0))
 1A5C 62D000            mov REG[0xd0],>__r0
 1A5F 5201              mov A,[X+1]
 1A61 5300              mov [__r1],A
 1A63 5200              mov A,[X+0]
 1A65 5300              mov [__r0],A
 1A67 6500              asl [__r1]
 1A69 6B00              rlc [__r0]
 1A6B 6500              asl [__r1]
 1A6D 6B00              rlc [__r0]
 1A6F 5100              mov A,[__r1]
 1A71 0100              add A,<_data_imm
 1A73 5300              mov [__r3],A
 1A75 5100              mov A,[__r0]
 1A77 0900              adc A,>_data_imm
 1A79 60D4              mov REG[0xd4],A
 1A7B 3E00              mvi A,[__r3]
 1A7D 5300              mov [__r4],A
 1A7F 3E00              mvi A,[__r3]
 1A81 5300              mov [__r5],A
 1A83 3E00              mvi A,[__r3]
 1A85 5300              mov [__r6],A
 1A87 3E00              mvi A,[__r3]
 1A89 5300              mov [__r7],A
 1A8B 5000              mov A,0
 1A8D 08                push A
 1A8E 08                push A
 1A8F 08                push A
 1A90 08                push A
 1A91 5100              mov A,[__r4]
 1A93 08                push A
 1A94 5100              mov A,[__r5]
 1A96 08                push A
 1A97 5100              mov A,[__r6]
 1A99 08                push A
 1A9A 5100              mov A,[__r7]
 1A9C 08                push A
 1A9D 7C0000            xcall __fpcmp
 1AA0 38F8              add SP,-8
 1AA2 3900              cmp A,0
 1AA4 A066              jz L92
 1AA6 3901              cmp A,1
 1AA8 A062              jz L92
 1AAA 060000            add [__r1],<_data_re
 1AAD 0E0000            adc [__r0],>_data_re
 1AB0 5100              mov A,[__r0]
 1AB2 60D4              mov REG[0xd4],A
 1AB4 3E00              mvi A,[__r1]
 1AB6 5300              mov [__r4],A
 1AB8 3E00              mvi A,[__r1]
 1ABA 5300              mov [__r5],A
 1ABC 3E00              mvi A,[__r1]
 1ABE 5300              mov [__r6],A
 1AC0 3E00              mvi A,[__r1]
 1AC2 5300              mov [__r7],A
 1AC4 5000              mov A,0
 1AC6 08                push A
 1AC7 08                push A
 1AC8 08                push A
 1AC9 08                push A
 1ACA 5100              mov A,[__r4]
 1ACC 08                push A
 1ACD 5100              mov A,[__r5]
 1ACF 08                push A
 1AD0 5100              mov A,[__r6]
 1AD2 08                push A
 1AD3 5100              mov A,[__r7]
 1AD5 08                push A
 1AD6 7C0000            xcall __fpcmp
 1AD9 38F8              add SP,-8
 1ADB 3900              cmp A,0
 1ADD B02D              jnz L92
 1ADF                   .dbline 228
 1ADF           ;       {
 1ADF           ;               ar1[i]=3*1.571;
 1ADF                   .dbline 228
 1ADF 5201              mov A,[X+1]
 1AE1 5300              mov [__r1],A
 1AE3 5200              mov A,[X+0]
 1AE5 5300              mov [__r0],A
 1AE7 6500              asl [__r1]
 1AE9 6B00              rlc [__r0]
 1AEB 6500              asl [__r1]
 1AED 6B00              rlc [__r0]
 1AEF 060000            add [__r1],<_ar1
 1AF2 0E0000            adc [__r0],>_ar1
 1AF5 5100              mov A,[__r0]
 1AF7 60D5              mov REG[0xd5],A
 1AF9 5040              mov A,64
 1AFB 3F00              mvi [__r1],A
 1AFD 5096              mov A,-106
 1AFF 3F00              mvi [__r1],A
 1B01 50D0              mov A,-48
 1B03 3F00              mvi [__r1],A
 1B05 50E5              mov A,-27
 1B07 3F00              mvi [__r1],A
 1B09                   .dbline 229
 1B09           ;       }
 1B09 81C9              xjmp L93
 1B0B           L92:
 1B0B                   .dbline 231
 1B0B           ;       else
 1B0B           ;       {
 1B0B                   .dbline 233
 1B0B           ;               
 1B0B           ;               ar1[i]=atan(data_imm[i]/data_re[i]);
 1B0B 62D000            mov REG[0xd0],>__r0
 1B0E 5201              mov A,[X+1]
 1B10 5300              mov [__r1],A
 1B12 5200              mov A,[X+0]
 1B14 5300              mov [__r0],A
 1B16 6500              asl [__r1]
 1B18 6B00              rlc [__r0]
 1B1A 6500              asl [__r1]
 1B1C 6B00              rlc [__r0]
 1B1E 5100              mov A,[__r1]
 1B20 5409              mov [X+9],A
 1B22 5100              mov A,[__r0]
 1B24 5408              mov [X+8],A
 1B26 5100              mov A,[__r1]
 1B28 0100              add A,<_data_re
 1B2A 5300              mov [__r3],A
 1B2C 5100              mov A,[__r0]
 1B2E 0900              adc A,>_data_re
 1B30 60D4              mov REG[0xd4],A
 1B32 3E00              mvi A,[__r3]
 1B34 5300              mov [__r4],A
 1B36 3E00              mvi A,[__r3]
 1B38 5300              mov [__r5],A
 1B3A 3E00              mvi A,[__r3]
 1B3C 5300              mov [__r6],A
 1B3E 3E00              mvi A,[__r3]
 1B40 5300              mov [__r7],A
 1B42 5100              mov A,[__r1]
 1B44 0100              add A,<_data_imm
 1B46 5300              mov [__r3],A
 1B48 5100              mov A,[__r0]
 1B4A 0900              adc A,>_data_imm
 1B4C 60D4              mov REG[0xd4],A
 1B4E 3E00              mvi A,[__r3]
 1B50 5300              mov [__r8],A
 1B52 3E00              mvi A,[__r3]
 1B54 5300              mov [__r9],A
 1B56 3E00              mvi A,[__r3]
 1B58 5300              mov [__r10],A
 1B5A 3E00              mvi A,[__r3]
 1B5C 5300              mov [__r11],A
 1B5E 5100              mov A,[__r4]
 1B60 08                push A
 1B61 5100              mov A,[__r5]
 1B63 08                push A
 1B64 5100              mov A,[__r6]
 1B66 08                push A
 1B67 5100              mov A,[__r7]
 1B69 08                push A
 1B6A 5100              mov A,[__r8]
 1B6C 08                push A
 1B6D 5100              mov A,[__r9]
 1B6F 08                push A
 1B70 5100              mov A,[__r10]
 1B72 08                push A
 1B73 5100              mov A,[__r11]
 1B75 08                push A
 1B76 7C0000            xcall __fpdiv
 1B79 18                pop A
 1B7A 5300              mov [__r7],A
 1B7C 18                pop A
 1B7D 5300              mov [__r6],A
 1B7F 18                pop A
 1B80 5300              mov [__r5],A
 1B82 18                pop A
 1B83 38FC              add SP,-4
 1B85 08                push A
 1B86 5100              mov A,[__r5]
 1B88 08                push A
 1B89 5100              mov A,[__r6]
 1B8B 08                push A
 1B8C 5100              mov A,[__r7]
 1B8E 08                push A
 1B8F 7C0000            xcall _atanf
 1B92 38FC              add SP,-4
 1B94 62D000            mov REG[0xd0],>__r0
 1B97 5209              mov A,[X+9]
 1B99 0100              add A,<_ar1
 1B9B 5300              mov [__r5],A
 1B9D 5208              mov A,[X+8]
 1B9F 0900              adc A,>_ar1
 1BA1 60D5              mov REG[0xd5],A
 1BA3 5100              mov A,[__r0]
 1BA5 3F00              mvi [__r5],A
 1BA7 5100              mov A,[__r1]
 1BA9 3F00              mvi [__r5],A
 1BAB 5100              mov A,[__r2]
 1BAD 3F00              mvi [__r5],A
 1BAF 5100              mov A,[__r3]
 1BB1 3F00              mvi [__r5],A
 1BB3                   .dbline 235
 1BB3           ;               //ar1[i]=atan_cordic(x1[i],z1[i]);
 1BB3           ;               if(neg==1)
 1BB3 3D0400            cmp [X+4],0
 1BB6 B073              jnz L94
 1BB8 3D0501            cmp [X+5],1
 1BBB B06E              jnz L94
 1BBD           X63:
 1BBD                   .dbline 236
 1BBD           ;                       ar1[i]=1.571-ar1[i];
 1BBD 62D000            mov REG[0xd0],>__r0
 1BC0 5201              mov A,[X+1]
 1BC2 5300              mov [__r1],A
 1BC4 5200              mov A,[X+0]
 1BC6 5300              mov [__r0],A
 1BC8 6500              asl [__r1]
 1BCA 6B00              rlc [__r0]
 1BCC 6500              asl [__r1]
 1BCE 6B00              rlc [__r0]
 1BD0 060000            add [__r1],<_ar1
 1BD3 0E0000            adc [__r0],>_ar1
 1BD6 5100              mov A,[__r0]
 1BD8 60D4              mov REG[0xd4],A
 1BDA 3E00              mvi A,[__r1]
 1BDC 5300              mov [__r4],A
 1BDE 3E00              mvi A,[__r1]
 1BE0 5300              mov [__r5],A
 1BE2 3E00              mvi A,[__r1]
 1BE4 5300              mov [__r6],A
 1BE6 3E00              mvi A,[__r1]
 1BE8 160004            sub [__r1],4
 1BEB 5300              mov [__r7],A
 1BED 5100              mov A,[__r4]
 1BEF 08                push A
 1BF0 5100              mov A,[__r5]
 1BF2 08                push A
 1BF3 5100              mov A,[__r6]
 1BF5 08                push A
 1BF6 5100              mov A,[__r7]
 1BF8 08                push A
 1BF9 503F              mov A,63
 1BFB 08                push A
 1BFC 50C9              mov A,-55
 1BFE 08                push A
 1BFF 5016              mov A,22
 1C01 08                push A
 1C02 5087              mov A,-121
 1C04 08                push A
 1C05 7C0000            xcall __fpsub
 1C08 18                pop A
 1C09 5300              mov [__r7],A
 1C0B 18                pop A
 1C0C 5300              mov [__r6],A
 1C0E 18                pop A
 1C0F 5300              mov [__r5],A
 1C11 18                pop A
 1C12 5300              mov [__r4],A
 1C14 38FC              add SP,-4
 1C16 5100              mov A,[__r0]
 1C18 60D5              mov REG[0xd5],A
 1C1A 5100              mov A,[__r4]
 1C1C 3F00              mvi [__r1],A
 1C1E 5100              mov A,[__r5]
 1C20 3F00              mvi [__r1],A
 1C22 5100              mov A,[__r6]
 1C24 3F00              mvi [__r1],A
 1C26 5100              mov A,[__r7]
 1C28 3F00              mvi [__r1],A
 1C2A           L94:
 1C2A                   .dbline 237
 1C2A           ;               ar1[i]=ar1[i]+offset;
 1C2A 62D000            mov REG[0xd0],>__r0
 1C2D 5201              mov A,[X+1]
 1C2F 5300              mov [__r1],A
 1C31 5200              mov A,[X+0]
 1C33 5300              mov [__r0],A
 1C35 6500              asl [__r1]
 1C37 6B00              rlc [__r0]
 1C39 6500              asl [__r1]
 1C3B 6B00              rlc [__r0]
 1C3D 060000            add [__r1],<_ar1
 1C40 0E0000            adc [__r0],>_ar1
 1C43 5203              mov A,[X+3]
 1C45 5300              mov [__r7],A
 1C47 5202              mov A,[X+2]
 1C49 5300              mov [__r6],A
 1C4B 470080            tst [__r6],-128
 1C4E A009              jz X64
 1C50 5500FF            mov [__r5],-1
 1C53 5500FF            mov [__r4],-1
 1C56 800A              jmp X65
 1C58           X64:
 1C58 62D000            mov REG[0xd0],>__r0
 1C5B 550000            mov [__r5],0
 1C5E 550000            mov [__r4],0
 1C61           X65:
 1C61 62D000            mov REG[0xd0],>__r0
 1C64 5100              mov A,[__r4]
 1C66 08                push A
 1C67 5100              mov A,[__r5]
 1C69 08                push A
 1C6A 5100              mov A,[__r6]
 1C6C 08                push A
 1C6D 5100              mov A,[__r7]
 1C6F 08                push A
 1C70 7C0000            xcall __long2fp
 1C73 18                pop A
 1C74 5300              mov [__r7],A
 1C76 18                pop A
 1C77 5300              mov [__r6],A
 1C79 18                pop A
 1C7A 5300              mov [__r5],A
 1C7C 18                pop A
 1C7D 5300              mov [__r4],A
 1C7F 5100              mov A,[__r0]
 1C81 60D4              mov REG[0xd4],A
 1C83 3E00              mvi A,[__r1]
 1C85 5300              mov [__r8],A
 1C87 3E00              mvi A,[__r1]
 1C89 5300              mov [__r9],A
 1C8B 3E00              mvi A,[__r1]
 1C8D 5300              mov [__r10],A
 1C8F 3E00              mvi A,[__r1]
 1C91 160004            sub [__r1],4
 1C94 5300              mov [__r11],A
 1C96 5100              mov A,[__r4]
 1C98 08                push A
 1C99 5100              mov A,[__r5]
 1C9B 08                push A
 1C9C 5100              mov A,[__r6]
 1C9E 08                push A
 1C9F 5100              mov A,[__r7]
 1CA1 08                push A
 1CA2 5100              mov A,[__r8]
 1CA4 08                push A
 1CA5 5100              mov A,[__r9]
 1CA7 08                push A
 1CA8 5100              mov A,[__r10]
 1CAA 08                push A
 1CAB 5100              mov A,[__r11]
 1CAD 08                push A
 1CAE 7C0000            xcall __fpadd
 1CB1 18                pop A
 1CB2 5300              mov [__r7],A
 1CB4 18                pop A
 1CB5 5300              mov [__r6],A
 1CB7 18                pop A
 1CB8 5300              mov [__r5],A
 1CBA 18                pop A
 1CBB 5300              mov [__r4],A
 1CBD 38FC              add SP,-4
 1CBF 5100              mov A,[__r0]
 1CC1 60D5              mov REG[0xd5],A
 1CC3 5100              mov A,[__r4]
 1CC5 3F00              mvi [__r1],A
 1CC7 5100              mov A,[__r5]
 1CC9 3F00              mvi [__r1],A
 1CCB 5100              mov A,[__r6]
 1CCD 3F00              mvi [__r1],A
 1CCF 5100              mov A,[__r7]
 1CD1 3F00              mvi [__r1],A
 1CD3                   .dbline 238
 1CD3           ;       }
 1CD3           L93:
 1CD3           L91:
 1CD3           L89:
 1CD3           L87:
 1CD3                   .dbline 241
 1CD3           ;       
 1CD3           ;       
 1CD3           ;       if((data_imm1[i]==0) && (data_re1[i]>0))
 1CD3 62D000            mov REG[0xd0],>__r0
 1CD6 5201              mov A,[X+1]
 1CD8 5300              mov [__r1],A
 1CDA 5200              mov A,[X+0]
 1CDC 5300              mov [__r0],A
 1CDE 6500              asl [__r1]
 1CE0 6B00              rlc [__r0]
 1CE2 6500              asl [__r1]
 1CE4 6B00              rlc [__r0]
 1CE6 5100              mov A,[__r1]
 1CE8 0100              add A,<_data_imm1
 1CEA 5300              mov [__r3],A
 1CEC 5100              mov A,[__r0]
 1CEE 0900              adc A,>_data_imm1
 1CF0 60D4              mov REG[0xd4],A
 1CF2 3E00              mvi A,[__r3]
 1CF4 5300              mov [__r4],A
 1CF6 3E00              mvi A,[__r3]
 1CF8 5300              mov [__r5],A
 1CFA 3E00              mvi A,[__r3]
 1CFC 5300              mov [__r6],A
 1CFE 3E00              mvi A,[__r3]
 1D00 5300              mov [__r7],A
 1D02 5000              mov A,0
 1D04 08                push A
 1D05 08                push A
 1D06 08                push A
 1D07 08                push A
 1D08 5100              mov A,[__r4]
 1D0A 08                push A
 1D0B 5100              mov A,[__r5]
 1D0D 08                push A
 1D0E 5100              mov A,[__r6]
 1D10 08                push A
 1D11 5100              mov A,[__r7]
 1D13 08                push A
 1D14 7C0000            xcall __fpcmp
 1D17 38F8              add SP,-8
 1D19 3900              cmp A,0
 1D1B B060              jnz L96
 1D1D 060000            add [__r1],<_data_re1
 1D20 0E0000            adc [__r0],>_data_re1
 1D23 5100              mov A,[__r0]
 1D25 60D4              mov REG[0xd4],A
 1D27 3E00              mvi A,[__r1]
 1D29 5300              mov [__r4],A
 1D2B 3E00              mvi A,[__r1]
 1D2D 5300              mov [__r5],A
 1D2F 3E00              mvi A,[__r1]
 1D31 5300              mov [__r6],A
 1D33 3E00              mvi A,[__r1]
 1D35 5300              mov [__r7],A
 1D37 5000              mov A,0
 1D39 08                push A
 1D3A 08                push A
 1D3B 08                push A
 1D3C 08                push A
 1D3D 5100              mov A,[__r4]
 1D3F 08                push A
 1D40 5100              mov A,[__r5]
 1D42 08                push A
 1D43 5100              mov A,[__r6]
 1D45 08                push A
 1D46 5100              mov A,[__r7]
 1D48 08                push A
 1D49 7C0000            xcall __fpcmp
 1D4C 38F8              add SP,-8
 1D4E 3900              cmp A,0
 1D50 A02B              jz L96
 1D52 3901              cmp A,1
 1D54 B027              jnz L96
 1D56                   .dbline 243
 1D56           ;       {
 1D56           ;               ar2[i]=0;
 1D56                   .dbline 243
 1D56 5201              mov A,[X+1]
 1D58 5300              mov [__r1],A
 1D5A 5200              mov A,[X+0]
 1D5C 5300              mov [__r0],A
 1D5E 6500              asl [__r1]
 1D60 6B00              rlc [__r0]
 1D62 6500              asl [__r1]
 1D64 6B00              rlc [__r0]
 1D66 060000            add [__r1],<_ar2
 1D69 0E0000            adc [__r0],>_ar2
 1D6C 5100              mov A,[__r0]
 1D6E 60D5              mov REG[0xd5],A
 1D70 5000              mov A,0
 1D72 3F00              mvi [__r1],A
 1D74 3F00              mvi [__r1],A
 1D76 3F00              mvi [__r1],A
 1D78 3F00              mvi [__r1],A
 1D7A                   .dbline 244
 1D7A           ;       }
 1D7A 83D6              xjmp L97
 1D7C           L96:
 1D7C                   .dbline 245
 1D7C           ;       else if((data_imm1[i]==0) && (data_re1[i]<0))
 1D7C 62D000            mov REG[0xd0],>__r0
 1D7F 5201              mov A,[X+1]
 1D81 5300              mov [__r1],A
 1D83 5200              mov A,[X+0]
 1D85 5300              mov [__r0],A
 1D87 6500              asl [__r1]
 1D89 6B00              rlc [__r0]
 1D8B 6500              asl [__r1]
 1D8D 6B00              rlc [__r0]
 1D8F 5100              mov A,[__r1]
 1D91 0100              add A,<_data_imm1
 1D93 5300              mov [__r3],A
 1D95 5100              mov A,[__r0]
 1D97 0900              adc A,>_data_imm1
 1D99 60D4              mov REG[0xd4],A
 1D9B 3E00              mvi A,[__r3]
 1D9D 5300              mov [__r4],A
 1D9F 3E00              mvi A,[__r3]
 1DA1 5300              mov [__r5],A
 1DA3 3E00              mvi A,[__r3]
 1DA5 5300              mov [__r6],A
 1DA7 3E00              mvi A,[__r3]
 1DA9 5300              mov [__r7],A
 1DAB 5000              mov A,0
 1DAD 08                push A
 1DAE 08                push A
 1DAF 08                push A
 1DB0 08                push A
 1DB1 5100              mov A,[__r4]
 1DB3 08                push A
 1DB4 5100              mov A,[__r5]
 1DB6 08                push A
 1DB7 5100              mov A,[__r6]
 1DB9 08                push A
 1DBA 5100              mov A,[__r7]
 1DBC 08                push A
 1DBD 7C0000            xcall __fpcmp
 1DC0 38F8              add SP,-8
 1DC2 3900              cmp A,0
 1DC4 B066              jnz L98
 1DC6 060000            add [__r1],<_data_re1
 1DC9 0E0000            adc [__r0],>_data_re1
 1DCC 5100              mov A,[__r0]
 1DCE 60D4              mov REG[0xd4],A
 1DD0 3E00              mvi A,[__r1]
 1DD2 5300              mov [__r4],A
 1DD4 3E00              mvi A,[__r1]
 1DD6 5300              mov [__r5],A
 1DD8 3E00              mvi A,[__r1]
 1DDA 5300              mov [__r6],A
 1DDC 3E00              mvi A,[__r1]
 1DDE 5300              mov [__r7],A
 1DE0 5000              mov A,0
 1DE2 08                push A
 1DE3 08                push A
 1DE4 08                push A
 1DE5 08                push A
 1DE6 5100              mov A,[__r4]
 1DE8 08                push A
 1DE9 5100              mov A,[__r5]
 1DEB 08                push A
 1DEC 5100              mov A,[__r6]
 1DEE 08                push A
 1DEF 5100              mov A,[__r7]
 1DF1 08                push A
 1DF2 7C0000            xcall __fpcmp
 1DF5 38F8              add SP,-8
 1DF7 3900              cmp A,0
 1DF9 A031              jz L98
 1DFB 3901              cmp A,1
 1DFD A02D              jz L98
 1DFF                   .dbline 247
 1DFF           ;       {
 1DFF           ;               ar2[i]=3.142;
 1DFF                   .dbline 247
 1DFF 5201              mov A,[X+1]
 1E01 5300              mov [__r1],A
 1E03 5200              mov A,[X+0]
 1E05 5300              mov [__r0],A
 1E07 6500              asl [__r1]
 1E09 6B00              rlc [__r0]
 1E0B 6500              asl [__r1]
 1E0D 6B00              rlc [__r0]
 1E0F 060000            add [__r1],<_ar2
 1E12 0E0000            adc [__r0],>_ar2
 1E15 5100              mov A,[__r0]
 1E17 60D5              mov REG[0xd5],A
 1E19 5040              mov A,64
 1E1B 3F00              mvi [__r1],A
 1E1D 5049              mov A,73
 1E1F 3F00              mvi [__r1],A
 1E21 5016              mov A,22
 1E23 3F00              mvi [__r1],A
 1E25 5087              mov A,-121
 1E27 3F00              mvi [__r1],A
 1E29                   .dbline 248
 1E29           ;       }
 1E29 8327              xjmp L99
 1E2B           L98:
 1E2B                   .dbline 249
 1E2B           ;       else if((data_imm1[i]>0) && (data_re1[i]==0))
 1E2B 62D000            mov REG[0xd0],>__r0
 1E2E 5201              mov A,[X+1]
 1E30 5300              mov [__r1],A
 1E32 5200              mov A,[X+0]
 1E34 5300              mov [__r0],A
 1E36 6500              asl [__r1]
 1E38 6B00              rlc [__r0]
 1E3A 6500              asl [__r1]
 1E3C 6B00              rlc [__r0]
 1E3E 5100              mov A,[__r1]
 1E40 0100              add A,<_data_imm1
 1E42 5300              mov [__r3],A
 1E44 5100              mov A,[__r0]
 1E46 0900              adc A,>_data_imm1
 1E48 60D4              mov REG[0xd4],A
 1E4A 3E00              mvi A,[__r3]
 1E4C 5300              mov [__r4],A
 1E4E 3E00              mvi A,[__r3]
 1E50 5300              mov [__r5],A
 1E52 3E00              mvi A,[__r3]
 1E54 5300              mov [__r6],A
 1E56 3E00              mvi A,[__r3]
 1E58 5300              mov [__r7],A
 1E5A 5000              mov A,0
 1E5C 08                push A
 1E5D 08                push A
 1E5E 08                push A
 1E5F 08                push A
 1E60 5100              mov A,[__r4]
 1E62 08                push A
 1E63 5100              mov A,[__r5]
 1E65 08                push A
 1E66 5100              mov A,[__r6]
 1E68 08                push A
 1E69 5100              mov A,[__r7]
 1E6B 08                push A
 1E6C 7C0000            xcall __fpcmp
 1E6F 38F8              add SP,-8
 1E71 3900              cmp A,0
 1E73 A066              jz L100
 1E75 3901              cmp A,1
 1E77 B062              jnz L100
 1E79 060000            add [__r1],<_data_re1
 1E7C 0E0000            adc [__r0],>_data_re1
 1E7F 5100              mov A,[__r0]
 1E81 60D4              mov REG[0xd4],A
 1E83 3E00              mvi A,[__r1]
 1E85 5300              mov [__r4],A
 1E87 3E00              mvi A,[__r1]
 1E89 5300              mov [__r5],A
 1E8B 3E00              mvi A,[__r1]
 1E8D 5300              mov [__r6],A
 1E8F 3E00              mvi A,[__r1]
 1E91 5300              mov [__r7],A
 1E93 5000              mov A,0
 1E95 08                push A
 1E96 08                push A
 1E97 08                push A
 1E98 08                push A
 1E99 5100              mov A,[__r4]
 1E9B 08                push A
 1E9C 5100              mov A,[__r5]
 1E9E 08                push A
 1E9F 5100              mov A,[__r6]
 1EA1 08                push A
 1EA2 5100              mov A,[__r7]
 1EA4 08                push A
 1EA5 7C0000            xcall __fpcmp
 1EA8 38F8              add SP,-8
 1EAA 3900              cmp A,0
 1EAC B02D              jnz L100
 1EAE                   .dbline 251
 1EAE           ;       {
 1EAE           ;               ar2[i]=1.571;
 1EAE                   .dbline 251
 1EAE 5201              mov A,[X+1]
 1EB0 5300              mov [__r1],A
 1EB2 5200              mov A,[X+0]
 1EB4 5300              mov [__r0],A
 1EB6 6500              asl [__r1]
 1EB8 6B00              rlc [__r0]
 1EBA 6500              asl [__r1]
 1EBC 6B00              rlc [__r0]
 1EBE 060000            add [__r1],<_ar2
 1EC1 0E0000            adc [__r0],>_ar2
 1EC4 5100              mov A,[__r0]
 1EC6 60D5              mov REG[0xd5],A
 1EC8 503F              mov A,63
 1ECA 3F00              mvi [__r1],A
 1ECC 50C9              mov A,-55
 1ECE 3F00              mvi [__r1],A
 1ED0 5016              mov A,22
 1ED2 3F00              mvi [__r1],A
 1ED4 5087              mov A,-121
 1ED6 3F00              mvi [__r1],A
 1ED8                   .dbline 252
 1ED8           ;       }
 1ED8 8278              xjmp L101
 1EDA           L100:
 1EDA                   .dbline 253
 1EDA           ;       else if((data_imm1[i]<0) && (data_re1[i]==0))
 1EDA 62D000            mov REG[0xd0],>__r0
 1EDD 5201              mov A,[X+1]
 1EDF 5300              mov [__r1],A
 1EE1 5200              mov A,[X+0]
 1EE3 5300              mov [__r0],A
 1EE5 6500              asl [__r1]
 1EE7 6B00              rlc [__r0]
 1EE9 6500              asl [__r1]
 1EEB 6B00              rlc [__r0]
 1EED 5100              mov A,[__r1]
 1EEF 0100              add A,<_data_imm1
 1EF1 5300              mov [__r3],A
 1EF3 5100              mov A,[__r0]
 1EF5 0900              adc A,>_data_imm1
 1EF7 60D4              mov REG[0xd4],A
 1EF9 3E00              mvi A,[__r3]
 1EFB 5300              mov [__r4],A
 1EFD 3E00              mvi A,[__r3]
 1EFF 5300              mov [__r5],A
 1F01 3E00              mvi A,[__r3]
 1F03 5300              mov [__r6],A
 1F05 3E00              mvi A,[__r3]
 1F07 5300              mov [__r7],A
 1F09 5000              mov A,0
 1F0B 08                push A
 1F0C 08                push A
 1F0D 08                push A
 1F0E 08                push A
 1F0F 5100              mov A,[__r4]
 1F11 08                push A
 1F12 5100              mov A,[__r5]
 1F14 08                push A
 1F15 5100              mov A,[__r6]
 1F17 08                push A
 1F18 5100              mov A,[__r7]
 1F1A 08                push A
 1F1B 7C0000            xcall __fpcmp
 1F1E 38F8              add SP,-8
 1F20 3900              cmp A,0
 1F22 A066              jz L102
 1F24 3901              cmp A,1
 1F26 A062              jz L102
 1F28 060000            add [__r1],<_data_re1
 1F2B 0E0000            adc [__r0],>_data_re1
 1F2E 5100              mov A,[__r0]
 1F30 60D4              mov REG[0xd4],A
 1F32 3E00              mvi A,[__r1]
 1F34 5300              mov [__r4],A
 1F36 3E00              mvi A,[__r1]
 1F38 5300              mov [__r5],A
 1F3A 3E00              mvi A,[__r1]
 1F3C 5300              mov [__r6],A
 1F3E 3E00              mvi A,[__r1]
 1F40 5300              mov [__r7],A
 1F42 5000              mov A,0
 1F44 08                push A
 1F45 08                push A
 1F46 08                push A
 1F47 08                push A
 1F48 5100              mov A,[__r4]
 1F4A 08                push A
 1F4B 5100              mov A,[__r5]
 1F4D 08                push A
 1F4E 5100              mov A,[__r6]
 1F50 08                push A
 1F51 5100              mov A,[__r7]
 1F53 08                push A
 1F54 7C0000            xcall __fpcmp
 1F57 38F8              add SP,-8
 1F59 3900              cmp A,0
 1F5B B02D              jnz L102
 1F5D                   .dbline 255
 1F5D           ;       {
 1F5D           ;               ar2[i]=3*1.571;
 1F5D                   .dbline 255
 1F5D 5201              mov A,[X+1]
 1F5F 5300              mov [__r1],A
 1F61 5200              mov A,[X+0]
 1F63 5300              mov [__r0],A
 1F65 6500              asl [__r1]
 1F67 6B00              rlc [__r0]
 1F69 6500              asl [__r1]
 1F6B 6B00              rlc [__r0]
 1F6D 060000            add [__r1],<_ar2
 1F70 0E0000            adc [__r0],>_ar2
 1F73 5100              mov A,[__r0]
 1F75 60D5              mov REG[0xd5],A
 1F77 5040              mov A,64
 1F79 3F00              mvi [__r1],A
 1F7B 5096              mov A,-106
 1F7D 3F00              mvi [__r1],A
 1F7F 50D0              mov A,-48
 1F81 3F00              mvi [__r1],A
 1F83 50E5              mov A,-27
 1F85 3F00              mvi [__r1],A
 1F87                   .dbline 256
 1F87           ;       }
 1F87 81C9              xjmp L103
 1F89           L102:
 1F89                   .dbline 258
 1F89           ;       else
 1F89           ;       {
 1F89                   .dbline 259
 1F89           ;               ar2[i]=atan(data_imm1[i]/data_re1[i]);
 1F89 62D000            mov REG[0xd0],>__r0
 1F8C 5201              mov A,[X+1]
 1F8E 5300              mov [__r1],A
 1F90 5200              mov A,[X+0]
 1F92 5300              mov [__r0],A
 1F94 6500              asl [__r1]
 1F96 6B00              rlc [__r0]
 1F98 6500              asl [__r1]
 1F9A 6B00              rlc [__r0]
 1F9C 5100              mov A,[__r1]
 1F9E 5409              mov [X+9],A
 1FA0 5100              mov A,[__r0]
 1FA2 5408              mov [X+8],A
 1FA4 5100              mov A,[__r1]
 1FA6 0100              add A,<_data_re1
 1FA8 5300              mov [__r3],A
 1FAA 5100              mov A,[__r0]
 1FAC 0900              adc A,>_data_re1
 1FAE 60D4              mov REG[0xd4],A
 1FB0 3E00              mvi A,[__r3]
 1FB2 5300              mov [__r4],A
 1FB4 3E00              mvi A,[__r3]
 1FB6 5300              mov [__r5],A
 1FB8 3E00              mvi A,[__r3]
 1FBA 5300              mov [__r6],A
 1FBC 3E00              mvi A,[__r3]
 1FBE 5300              mov [__r7],A
 1FC0 5100              mov A,[__r1]
 1FC2 0100              add A,<_data_imm1
 1FC4 5300              mov [__r3],A
 1FC6 5100              mov A,[__r0]
 1FC8 0900              adc A,>_data_imm1
 1FCA 60D4              mov REG[0xd4],A
 1FCC 3E00              mvi A,[__r3]
 1FCE 5300              mov [__r8],A
 1FD0 3E00              mvi A,[__r3]
 1FD2 5300              mov [__r9],A
 1FD4 3E00              mvi A,[__r3]
 1FD6 5300              mov [__r10],A
 1FD8 3E00              mvi A,[__r3]
 1FDA 5300              mov [__r11],A
 1FDC 5100              mov A,[__r4]
 1FDE 08                push A
 1FDF 5100              mov A,[__r5]
 1FE1 08                push A
 1FE2 5100              mov A,[__r6]
 1FE4 08                push A
 1FE5 5100              mov A,[__r7]
 1FE7 08                push A
 1FE8 5100              mov A,[__r8]
 1FEA 08                push A
 1FEB 5100              mov A,[__r9]
 1FED 08                push A
 1FEE 5100              mov A,[__r10]
 1FF0 08                push A
 1FF1 5100              mov A,[__r11]
 1FF3 08                push A
 1FF4 7C0000            xcall __fpdiv
 1FF7 18                pop A
 1FF8 5300              mov [__r7],A
 1FFA 18                pop A
 1FFB 5300              mov [__r6],A
 1FFD 18                pop A
 1FFE 5300              mov [__r5],A
 2000 18                pop A
 2001 38FC              add SP,-4
 2003 08                push A
 2004 5100              mov A,[__r5]
 2006 08                push A
 2007 5100              mov A,[__r6]
 2009 08                push A
 200A 5100              mov A,[__r7]
 200C 08                push A
 200D 7C0000            xcall _atanf
 2010 38FC              add SP,-4
 2012 62D000            mov REG[0xd0],>__r0
 2015 5209              mov A,[X+9]
 2017 0100              add A,<_ar2
 2019 5300              mov [__r5],A
 201B 5208              mov A,[X+8]
 201D 0900              adc A,>_ar2
 201F 60D5              mov REG[0xd5],A
 2021 5100              mov A,[__r0]
 2023 3F00              mvi [__r5],A
 2025 5100              mov A,[__r1]
 2027 3F00              mvi [__r5],A
 2029 5100              mov A,[__r2]
 202B 3F00              mvi [__r5],A
 202D 5100              mov A,[__r3]
 202F 3F00              mvi [__r5],A
 2031                   .dbline 261
 2031           ;               //ar2[i]=atan_cordic(x1[i],z1[i]);
 2031           ;               if(neg==1)
 2031 3D0400            cmp [X+4],0
 2034 B073              jnz L104
 2036 3D0501            cmp [X+5],1
 2039 B06E              jnz L104
 203B           X74:
 203B                   .dbline 262
 203B           ;                       ar2[i]=1.571-ar2[i];
 203B 62D000            mov REG[0xd0],>__r0
 203E 5201              mov A,[X+1]
 2040 5300              mov [__r1],A
 2042 5200              mov A,[X+0]
 2044 5300              mov [__r0],A
 2046 6500              asl [__r1]
 2048 6B00              rlc [__r0]
 204A 6500              asl [__r1]
 204C 6B00              rlc [__r0]
 204E 060000            add [__r1],<_ar2
 2051 0E0000            adc [__r0],>_ar2
 2054 5100              mov A,[__r0]
 2056 60D4              mov REG[0xd4],A
 2058 3E00              mvi A,[__r1]
 205A 5300              mov [__r4],A
 205C 3E00              mvi A,[__r1]
 205E 5300              mov [__r5],A
 2060 3E00              mvi A,[__r1]
 2062 5300              mov [__r6],A
 2064 3E00              mvi A,[__r1]
 2066 160004            sub [__r1],4
 2069 5300              mov [__r7],A
 206B 5100              mov A,[__r4]
 206D 08                push A
 206E 5100              mov A,[__r5]
 2070 08                push A
 2071 5100              mov A,[__r6]
 2073 08                push A
 2074 5100              mov A,[__r7]
 2076 08                push A
 2077 503F              mov A,63
 2079 08                push A
 207A 50C9              mov A,-55
 207C 08                push A
 207D 5016              mov A,22
 207F 08                push A
 2080 5087              mov A,-121
 2082 08                push A
 2083 7C0000            xcall __fpsub
 2086 18                pop A
 2087 5300              mov [__r7],A
 2089 18                pop A
 208A 5300              mov [__r6],A
 208C 18                pop A
 208D 5300              mov [__r5],A
 208F 18                pop A
 2090 5300              mov [__r4],A
 2092 38FC              add SP,-4
 2094 5100              mov A,[__r0]
 2096 60D5              mov REG[0xd5],A
 2098 5100              mov A,[__r4]
 209A 3F00              mvi [__r1],A
 209C 5100              mov A,[__r5]
 209E 3F00              mvi [__r1],A
 20A0 5100              mov A,[__r6]
 20A2 3F00              mvi [__r1],A
 20A4 5100              mov A,[__r7]
 20A6 3F00              mvi [__r1],A
 20A8           L104:
 20A8                   .dbline 263
 20A8           ;               ar2[i]=ar2[i]+offset;
 20A8 62D000            mov REG[0xd0],>__r0
 20AB 5201              mov A,[X+1]
 20AD 5300              mov [__r1],A
 20AF 5200              mov A,[X+0]
 20B1 5300              mov [__r0],A
 20B3 6500              asl [__r1]
 20B5 6B00              rlc [__r0]
 20B7 6500              asl [__r1]
 20B9 6B00              rlc [__r0]
 20BB 060000            add [__r1],<_ar2
 20BE 0E0000            adc [__r0],>_ar2
 20C1 5203              mov A,[X+3]
 20C3 5300              mov [__r7],A
 20C5 5202              mov A,[X+2]
 20C7 5300              mov [__r6],A
 20C9 470080            tst [__r6],-128
 20CC A009              jz X75
 20CE 5500FF            mov [__r5],-1
 20D1 5500FF            mov [__r4],-1
 20D4 800A              jmp X76
 20D6           X75:
 20D6 62D000            mov REG[0xd0],>__r0
 20D9 550000            mov [__r5],0
 20DC 550000            mov [__r4],0
 20DF           X76:
 20DF 62D000            mov REG[0xd0],>__r0
 20E2 5100              mov A,[__r4]
 20E4 08                push A
 20E5 5100              mov A,[__r5]
 20E7 08                push A
 20E8 5100              mov A,[__r6]
 20EA 08                push A
 20EB 5100              mov A,[__r7]
 20ED 08                push A
 20EE 7C0000            xcall __long2fp
 20F1 18                pop A
 20F2 5300              mov [__r7],A
 20F4 18                pop A
 20F5 5300              mov [__r6],A
 20F7 18                pop A
 20F8 5300              mov [__r5],A
 20FA 18                pop A
 20FB 5300              mov [__r4],A
 20FD 5100              mov A,[__r0]
 20FF 60D4              mov REG[0xd4],A
 2101 3E00              mvi A,[__r1]
 2103 5300              mov [__r8],A
 2105 3E00              mvi A,[__r1]
 2107 5300              mov [__r9],A
 2109 3E00              mvi A,[__r1]
 210B 5300              mov [__r10],A
 210D 3E00              mvi A,[__r1]
 210F 160004            sub [__r1],4
 2112 5300              mov [__r11],A
 2114 5100              mov A,[__r4]
 2116 08                push A
 2117 5100              mov A,[__r5]
 2119 08                push A
 211A 5100              mov A,[__r6]
 211C 08                push A
 211D 5100              mov A,[__r7]
 211F 08                push A
 2120 5100              mov A,[__r8]
 2122 08                push A
 2123 5100              mov A,[__r9]
 2125 08                push A
 2126 5100              mov A,[__r10]
 2128 08                push A
 2129 5100              mov A,[__r11]
 212B 08                push A
 212C 7C0000            xcall __fpadd
 212F 18                pop A
 2130 5300              mov [__r7],A
 2132 18                pop A
 2133 5300              mov [__r6],A
 2135 18                pop A
 2136 5300              mov [__r5],A
 2138 18                pop A
 2139 5300              mov [__r4],A
 213B 38FC              add SP,-4
 213D 5100              mov A,[__r0]
 213F 60D5              mov REG[0xd5],A
 2141 5100              mov A,[__r4]
 2143 3F00              mvi [__r1],A
 2145 5100              mov A,[__r5]
 2147 3F00              mvi [__r1],A
 2149 5100              mov A,[__r6]
 214B 3F00              mvi [__r1],A
 214D 5100              mov A,[__r7]
 214F 3F00              mvi [__r1],A
 2151                   .dbline 264
 2151           ;       }
 2151           L103:
 2151           L101:
 2151           L99:
 2151           L97:
 2151                   .dbline 267
 2151           ;       
 2151           ;       
 2151           ;       }
 2151           L77:
 2151                   .dbline 188
 2151 7701              inc [X+1]
 2153 0F0000            adc [X+0],0
 2156                   .dbline 188
 2156 5201              mov A,[X+1]
 2158 1120              sub A,32
 215A 5200              mov A,[X+0]
 215C 3180              xor A,-128
 215E 1980              sbb A,(0 ^ 0x80)
 2160 D004              jnc X78
 2162 7D157C            ljmp L76
 2165           X78:
 2165           X77:
 2165                   .dbline 268
 2165           ;       LCD_Clear();
 2165 7C14BE            xcall _LCD_Clear
 2168                   .dbline 269
 2168           ;       LCD_Position(0,0);
 2168 10                push X
 2169 5000              mov A,0
 216B 5700              mov X,0
 216D 7C0000            xcall _LCD_Position
 2170                   .dbline 270
 2170           ;       LCD_PrCString("Exiting cordic");
 2170 502D              mov A,>L106
 2172 08                push A
 2173 502D              mov A,<L106
 2175 5C                mov X,A
 2176 18                pop A
 2177 7C0000            xcall _LCD_PrCString
 217A 20                pop X
 217B                   .dbline -2
 217B           L75:
 217B 38F6              add SP,-10
 217D 20                pop X
 217E                   .dbline 0 ; func end
 217E 7F                ret
 217F                   .dbsym l value 6 I
 217F                   .dbsym l neg 4 I
 217F                   .dbsym l offset 2 I
 217F                   .dbsym l i 0 I
 217F                   .dbend
 217F                   .dbfunc e max_likelihood _max_likelihood fV
 217F           ;         Status -> X+36
 217F           ;          value -> X+32
 217F           ;          temp1 -> X+30
 217F           ;            doa -> X+26
 217F           ;           qmax -> X+22
 217F           ;            max -> X+18
 217F           ;              i -> X+16
 217F           ;           phin -> X+12
 217F           ;           temp -> X+8
 217F           ;             ph -> X+4
 217F           ;              n -> X+2
 217F           ;              q -> X+0
 217F           _max_likelihood::
 217F                   .dbline -1
 217F 10                push X
 2180 4F                mov X,SP
 2181 3826              add SP,38
 2183                   .dbline 280
 2183           ; }
 2183           ; 
 2183           ; 
 2183           ; 
 2183           ; //x1  --> data_re
 2183           ; //x2 --> data_imm
 2183           ; //z1 --> mod
 2183           ; //z2 --> data_re1
 2183           ; void max_likelihood(void)
 2183           ; {
 2183                   .dbline 286
 2183           ; int i,n,q,Status;
 2183           ;       double phin,max,qmax,ph, temp;
 2183           ;       double doa;
 2183           ;       char *temp1;
 2183           ;       double value;
 2183           ; for(i=0;i<31;i++)
 2183 561100            mov [X+17],0
 2186 561000            mov [X+16],0
 2189           L108:
 2189                   .dbline 287
 2189           ;       data_re[i]=ar1[i]-ar2[i];
 2189 62D000            mov REG[0xd0],>__r0
 218C 5211              mov A,[X+17]
 218E 5300              mov [__r1],A
 2190 5210              mov A,[X+16]
 2192 5300              mov [__r0],A
 2194 6500              asl [__r1]
 2196 6B00              rlc [__r0]
 2198 6500              asl [__r1]
 219A 6B00              rlc [__r0]
 219C 5100              mov A,[__r1]
 219E 0100              add A,<_ar2
 21A0 5300              mov [__r3],A
 21A2 5100              mov A,[__r0]
 21A4 0900              adc A,>_ar2
 21A6 60D4              mov REG[0xd4],A
 21A8 3E00              mvi A,[__r3]
 21AA 5300              mov [__r4],A
 21AC 3E00              mvi A,[__r3]
 21AE 5300              mov [__r5],A
 21B0 3E00              mvi A,[__r3]
 21B2 5300              mov [__r6],A
 21B4 3E00              mvi A,[__r3]
 21B6 5300              mov [__r7],A
 21B8 5100              mov A,[__r1]
 21BA 0100              add A,<_ar1
 21BC 5300              mov [__r3],A
 21BE 5100              mov A,[__r0]
 21C0 0900              adc A,>_ar1
 21C2 60D4              mov REG[0xd4],A
 21C4 3E00              mvi A,[__r3]
 21C6 5300              mov [__r8],A
 21C8 3E00              mvi A,[__r3]
 21CA 5300              mov [__r9],A
 21CC 3E00              mvi A,[__r3]
 21CE 5300              mov [__r10],A
 21D0 3E00              mvi A,[__r3]
 21D2 5300              mov [__r11],A
 21D4 5100              mov A,[__r4]
 21D6 08                push A
 21D7 5100              mov A,[__r5]
 21D9 08                push A
 21DA 5100              mov A,[__r6]
 21DC 08                push A
 21DD 5100              mov A,[__r7]
 21DF 08                push A
 21E0 5100              mov A,[__r8]
 21E2 08                push A
 21E3 5100              mov A,[__r9]
 21E5 08                push A
 21E6 5100              mov A,[__r10]
 21E8 08                push A
 21E9 5100              mov A,[__r11]
 21EB 08                push A
 21EC 7C0000            xcall __fpsub
 21EF 18                pop A
 21F0 5300              mov [__r7],A
 21F2 18                pop A
 21F3 5300              mov [__r6],A
 21F5 18                pop A
 21F6 5300              mov [__r5],A
 21F8 18                pop A
 21F9 5300              mov [__r4],A
 21FB 38FC              add SP,-4
 21FD 060000            add [__r1],<_data_re
 2200 0E0000            adc [__r0],>_data_re
 2203 5100              mov A,[__r0]
 2205 60D5              mov REG[0xd5],A
 2207 5100              mov A,[__r4]
 2209 3F00              mvi [__r1],A
 220B 5100              mov A,[__r5]
 220D 3F00              mvi [__r1],A
 220F 5100              mov A,[__r6]
 2211 3F00              mvi [__r1],A
 2213 5100              mov A,[__r7]
 2215 3F00              mvi [__r1],A
 2217           L109:
 2217                   .dbline 286
 2217 7711              inc [X+17]
 2219 0F1000            adc [X+16],0
 221C                   .dbline 286
 221C 5211              mov A,[X+17]
 221E 111F              sub A,31
 2220 5210              mov A,[X+16]
 2222 3180              xor A,-128
 2224 1980              sbb A,(0 ^ 0x80)
 2226 CF62              jc L108
 2228           X79:
 2228                   .dbline 291
 2228           ; 
 2228           ; 
 2228           ; 
 2228           ; for(i=0;i<64;i++)
 2228 561100            mov [X+17],0
 222B 561000            mov [X+16],0
 222E           L112:
 222E                   .dbline 292
 222E           ; {
 222E                   .dbline 293
 222E           ; data_imm[i]=0;
 222E 62D000            mov REG[0xd0],>__r0
 2231 5211              mov A,[X+17]
 2233 5300              mov [__r1],A
 2235 5210              mov A,[X+16]
 2237 5300              mov [__r0],A
 2239 6500              asl [__r1]
 223B 6B00              rlc [__r0]
 223D 6500              asl [__r1]
 223F 6B00              rlc [__r0]
 2241 060000            add [__r1],<_data_imm
 2244 0E0000            adc [__r0],>_data_imm
 2247 5100              mov A,[__r0]
 2249 60D5              mov REG[0xd5],A
 224B 5000              mov A,0
 224D 3F00              mvi [__r1],A
 224F 3F00              mvi [__r1],A
 2251 3F00              mvi [__r1],A
 2253 3F00              mvi [__r1],A
 2255                   .dbline 294
 2255           ; mod[i]=0;
 2255 5211              mov A,[X+17]
 2257 5300              mov [__r1],A
 2259 5210              mov A,[X+16]
 225B 5300              mov [__r0],A
 225D 6500              asl [__r1]
 225F 6B00              rlc [__r0]
 2261 6500              asl [__r1]
 2263 6B00              rlc [__r0]
 2265 060000            add [__r1],<_mod
 2268 0E0000            adc [__r0],>_mod
 226B 5100              mov A,[__r0]
 226D 60D5              mov REG[0xd5],A
 226F 5000              mov A,0
 2271 3F00              mvi [__r1],A
 2273 3F00              mvi [__r1],A
 2275 3F00              mvi [__r1],A
 2277 3F00              mvi [__r1],A
 2279                   .dbline 295
 2279           ; data_re1[i]=0;
 2279 5211              mov A,[X+17]
 227B 5300              mov [__r1],A
 227D 5210              mov A,[X+16]
 227F 5300              mov [__r0],A
 2281 6500              asl [__r1]
 2283 6B00              rlc [__r0]
 2285 6500              asl [__r1]
 2287 6B00              rlc [__r0]
 2289 060000            add [__r1],<_data_re1
 228C 0E0000            adc [__r0],>_data_re1
 228F 5100              mov A,[__r0]
 2291 60D5              mov REG[0xd5],A
 2293 5000              mov A,0
 2295 3F00              mvi [__r1],A
 2297 3F00              mvi [__r1],A
 2299 3F00              mvi [__r1],A
 229B 3F00              mvi [__r1],A
 229D                   .dbline 296
 229D           ; }
 229D           L113:
 229D                   .dbline 291
 229D 7711              inc [X+17]
 229F 0F1000            adc [X+16],0
 22A2                   .dbline 291
 22A2 5211              mov A,[X+17]
 22A4 1140              sub A,64
 22A6 5210              mov A,[X+16]
 22A8 3180              xor A,-128
 22AA 1980              sbb A,(0 ^ 0x80)
 22AC CF81              jc L112
 22AE           X80:
 22AE                   .dbline 298
 22AE           ; 
 22AE           ; phin=-0.397604;
 22AE 560CBE            mov [X+12],-66
 22B1 560DCB            mov [X+13],-53
 22B4 560E92            mov [X+14],-110
 22B7 560FC0            mov [X+15],-64
 22BA                   .dbline 299
 22BA           ; max=0;
 22BA 561200            mov [X+18],0
 22BD 561300            mov [X+19],0
 22C0 561400            mov [X+20],0
 22C3 561500            mov [X+21],0
 22C6                   .dbline 300
 22C6           ; qmax=0;
 22C6 561600            mov [X+22],0
 22C9 561700            mov [X+23],0
 22CC 561800            mov [X+24],0
 22CF 561900            mov [X+25],0
 22D2                   .dbline 302
 22D2           ; 
 22D2           ; for(q=0;q<162;q++)
 22D2 560100            mov [X+1],0
 22D5 560000            mov [X+0],0
 22D8           L116:
 22D8                   .dbline 303
 22D8           ; {
 22D8                   .dbline 304
 22D8           ;       phin = phin + 0.0049087;
 22D8 503B              mov A,59
 22DA 08                push A
 22DB 50A0              mov A,-96
 22DD 08                push A
 22DE 50D9              mov A,-39
 22E0 08                push A
 22E1 5029              mov A,41
 22E3 08                push A
 22E4 520C              mov A,[X+12]
 22E6 08                push A
 22E7 520D              mov A,[X+13]
 22E9 08                push A
 22EA 520E              mov A,[X+14]
 22EC 08                push A
 22ED 520F              mov A,[X+15]
 22EF 08                push A
 22F0 62D000            mov REG[0xd0],>__r0
 22F3 7C0000            xcall __fpadd
 22F6 18                pop A
 22F7 540F              mov [X+15],A
 22F9 18                pop A
 22FA 540E              mov [X+14],A
 22FC 18                pop A
 22FD 540D              mov [X+13],A
 22FF 18                pop A
 2300 540C              mov [X+12],A
 2302 38FC              add SP,-4
 2304                   .dbline 306
 2304           ;       
 2304           ;       for(n=0;n<31;n++)
 2304 560300            mov [X+3],0
 2307 560200            mov [X+2],0
 230A           L120:
 230A                   .dbline 307
 230A           ;       {
 230A                   .dbline 313
 230A           ; //            i=n;
 230A           ; //            ph=0;
 230A           ; //            for(i=0;i<n;i++)
 230A           ; //                    ph = ph + phin;
 230A           ;               
 230A           ;               ph = phin * n;
 230A 62D000            mov REG[0xd0],>__r0
 230D 5203              mov A,[X+3]
 230F 5300              mov [__r3],A
 2311 5202              mov A,[X+2]
 2313 5300              mov [__r2],A
 2315 470080            tst [__r2],-128
 2318 A009              jz X81
 231A 5500FF            mov [__r1],-1
 231D 5500FF            mov [__r0],-1
 2320 800A              jmp X82
 2322           X81:
 2322 62D000            mov REG[0xd0],>__r0
 2325 550000            mov [__r1],0
 2328 550000            mov [__r0],0
 232B           X82:
 232B 62D000            mov REG[0xd0],>__r0
 232E 5100              mov A,[__r0]
 2330 08                push A
 2331 5100              mov A,[__r1]
 2333 08                push A
 2334 5100              mov A,[__r2]
 2336 08                push A
 2337 5100              mov A,[__r3]
 2339 08                push A
 233A 7C0000            xcall __long2fp
 233D 18                pop A
 233E 5300              mov [__r3],A
 2340 18                pop A
 2341 5300              mov [__r2],A
 2343 18                pop A
 2344 5300              mov [__r1],A
 2346 18                pop A
 2347 08                push A
 2348 5100              mov A,[__r1]
 234A 08                push A
 234B 5100              mov A,[__r2]
 234D 08                push A
 234E 5100              mov A,[__r3]
 2350 08                push A
 2351 520C              mov A,[X+12]
 2353 08                push A
 2354 520D              mov A,[X+13]
 2356 08                push A
 2357 520E              mov A,[X+14]
 2359 08                push A
 235A 520F              mov A,[X+15]
 235C 08                push A
 235D 7C0000            xcall __fpmul
 2360 18                pop A
 2361 5407              mov [X+7],A
 2363 18                pop A
 2364 5406              mov [X+6],A
 2366 18                pop A
 2367 5405              mov [X+5],A
 2369 18                pop A
 236A 5404              mov [X+4],A
 236C 38FC              add SP,-4
 236E                   .dbline 314
 236E           ;               if(q<64)
 236E 5201              mov A,[X+1]
 2370 1140              sub A,64
 2372 5200              mov A,[X+0]
 2374 3180              xor A,-128
 2376 1980              sbb A,(0 ^ 0x80)
 2378 D0FB              jnc L124
 237A           X83:
 237A                   .dbline 316
 237A           ;               {
 237A           ;                       data_imm[q]=data_imm[q]+cos(data_re[n]-ph);
 237A                   .dbline 316
 237A 62D000            mov REG[0xd0],>__r0
 237D 5203              mov A,[X+3]
 237F 5300              mov [__r1],A
 2381 5202              mov A,[X+2]
 2383 5300              mov [__r0],A
 2385 6500              asl [__r1]
 2387 6B00              rlc [__r0]
 2389 6500              asl [__r1]
 238B 6B00              rlc [__r0]
 238D 060000            add [__r1],<_data_re
 2390 0E0000            adc [__r0],>_data_re
 2393 5100              mov A,[__r0]
 2395 60D4              mov REG[0xd4],A
 2397 3E00              mvi A,[__r1]
 2399 5300              mov [__r4],A
 239B 3E00              mvi A,[__r1]
 239D 5300              mov [__r5],A
 239F 3E00              mvi A,[__r1]
 23A1 5300              mov [__r6],A
 23A3 3E00              mvi A,[__r1]
 23A5 5300              mov [__r7],A
 23A7 5204              mov A,[X+4]
 23A9 08                push A
 23AA 5205              mov A,[X+5]
 23AC 08                push A
 23AD 5206              mov A,[X+6]
 23AF 08                push A
 23B0 5207              mov A,[X+7]
 23B2 08                push A
 23B3 5100              mov A,[__r4]
 23B5 08                push A
 23B6 5100              mov A,[__r5]
 23B8 08                push A
 23B9 5100              mov A,[__r6]
 23BB 08                push A
 23BC 5100              mov A,[__r7]
 23BE 08                push A
 23BF 7C0000            xcall __fpsub
 23C2 18                pop A
 23C3 5300              mov [__r3],A
 23C5 18                pop A
 23C6 5300              mov [__r2],A
 23C8 18                pop A
 23C9 5300              mov [__r1],A
 23CB 18                pop A
 23CC 38FC              add SP,-4
 23CE 08                push A
 23CF 5100              mov A,[__r1]
 23D1 08                push A
 23D2 5100              mov A,[__r2]
 23D4 08                push A
 23D5 5100              mov A,[__r3]
 23D7 08                push A
 23D8 7C0000            xcall _cosf
 23DB 38FC              add SP,-4
 23DD 62D000            mov REG[0xd0],>__r0
 23E0 5201              mov A,[X+1]
 23E2 5300              mov [__r5],A
 23E4 5200              mov A,[X+0]
 23E6 5300              mov [__r4],A
 23E8 6500              asl [__r5]
 23EA 6B00              rlc [__r4]
 23EC 6500              asl [__r5]
 23EE 6B00              rlc [__r4]
 23F0 060000            add [__r5],<_data_imm
 23F3 0E0000            adc [__r4],>_data_imm
 23F6 5100              mov A,[__r4]
 23F8 60D4              mov REG[0xd4],A
 23FA 3E00              mvi A,[__r5]
 23FC 5300              mov [__r8],A
 23FE 3E00              mvi A,[__r5]
 2400 5300              mov [__r9],A
 2402 3E00              mvi A,[__r5]
 2404 5300              mov [__r10],A
 2406 3E00              mvi A,[__r5]
 2408 160004            sub [__r5],4
 240B 5300              mov [__r11],A
 240D 5100              mov A,[__r0]
 240F 08                push A
 2410 5100              mov A,[__r1]
 2412 08                push A
 2413 5100              mov A,[__r2]
 2415 08                push A
 2416 5100              mov A,[__r3]
 2418 08                push A
 2419 5100              mov A,[__r8]
 241B 08                push A
 241C 5100              mov A,[__r9]
 241E 08                push A
 241F 5100              mov A,[__r10]
 2421 08                push A
 2422 5100              mov A,[__r11]
 2424 08                push A
 2425 7C0000            xcall __fpadd
 2428 18                pop A
 2429 5300              mov [__r3],A
 242B 18                pop A
 242C 5300              mov [__r2],A
 242E 18                pop A
 242F 5300              mov [__r1],A
 2431 18                pop A
 2432 5300              mov [__r0],A
 2434 38FC              add SP,-4
 2436 5100              mov A,[__r4]
 2438 60D5              mov REG[0xd5],A
 243A 5100              mov A,[__r0]
 243C 3F00              mvi [__r5],A
 243E 5100              mov A,[__r1]
 2440 3F00              mvi [__r5],A
 2442 5100              mov A,[__r2]
 2444 3F00              mvi [__r5],A
 2446 5100              mov A,[__r3]
 2448 3F00              mvi [__r5],A
 244A                   .dbline 317
 244A           ;                       temp = data_imm[q];
 244A 5201              mov A,[X+1]
 244C 5300              mov [__r1],A
 244E 5200              mov A,[X+0]
 2450 5300              mov [__r0],A
 2452 6500              asl [__r1]
 2454 6B00              rlc [__r0]
 2456 6500              asl [__r1]
 2458 6B00              rlc [__r0]
 245A 060000            add [__r1],<_data_imm
 245D 0E0000            adc [__r0],>_data_imm
 2460 5100              mov A,[__r0]
 2462 60D4              mov REG[0xd4],A
 2464 3E00              mvi A,[__r1]
 2466 5408              mov [X+8],A
 2468 3E00              mvi A,[__r1]
 246A 5409              mov [X+9],A
 246C 3E00              mvi A,[__r1]
 246E 540A              mov [X+10],A
 2470 3E00              mvi A,[__r1]
 2472 540B              mov [X+11],A
 2474                   .dbline 318
 2474           ;               }
 2474           L124:
 2474                   .dbline 320
 2474           ;               
 2474           ;               if(q>63)
 2474 503F              mov A,63
 2476 1301              sub A,[X+1]
 2478 5200              mov A,[X+0]
 247A 3180              xor A,-128
 247C 62D000            mov REG[0xd0],>__r0
 247F 5300              mov [__rX],A
 2481 5080              mov A,(0 ^ 0x80)
 2483 1A00              sbb A,[__rX]
 2485 D10F              jnc L126
 2487           X84:
 2487                   .dbline 322
 2487           ;               {
 2487           ;               if(q<128)
 2487                   .dbline 322
 2487 5201              mov A,[X+1]
 2489 1180              sub A,-128
 248B 5200              mov A,[X+0]
 248D 3180              xor A,-128
 248F 1980              sbb A,(0 ^ 0x80)
 2491 D103              jnc L128
 2493           X85:
 2493                   .dbline 324
 2493           ;               {
 2493           ;                       mod[q-64]=mod[q-64]+cos(data_re[n]-ph);
 2493                   .dbline 324
 2493 62D000            mov REG[0xd0],>__r0
 2496 5203              mov A,[X+3]
 2498 5300              mov [__r1],A
 249A 5202              mov A,[X+2]
 249C 5300              mov [__r0],A
 249E 6500              asl [__r1]
 24A0 6B00              rlc [__r0]
 24A2 6500              asl [__r1]
 24A4 6B00              rlc [__r0]
 24A6 060000            add [__r1],<_data_re
 24A9 0E0000            adc [__r0],>_data_re
 24AC 5100              mov A,[__r0]
 24AE 60D4              mov REG[0xd4],A
 24B0 3E00              mvi A,[__r1]
 24B2 5300              mov [__r4],A
 24B4 3E00              mvi A,[__r1]
 24B6 5300              mov [__r5],A
 24B8 3E00              mvi A,[__r1]
 24BA 5300              mov [__r6],A
 24BC 3E00              mvi A,[__r1]
 24BE 5300              mov [__r7],A
 24C0 5204              mov A,[X+4]
 24C2 08                push A
 24C3 5205              mov A,[X+5]
 24C5 08                push A
 24C6 5206              mov A,[X+6]
 24C8 08                push A
 24C9 5207              mov A,[X+7]
 24CB 08                push A
 24CC 5100              mov A,[__r4]
 24CE 08                push A
 24CF 5100              mov A,[__r5]
 24D1 08                push A
 24D2 5100              mov A,[__r6]
 24D4 08                push A
 24D5 5100              mov A,[__r7]
 24D7 08                push A
 24D8 7C0000            xcall __fpsub
 24DB 18                pop A
 24DC 5300              mov [__r3],A
 24DE 18                pop A
 24DF 5300              mov [__r2],A
 24E1 18                pop A
 24E2 5300              mov [__r1],A
 24E4 18                pop A
 24E5 38FC              add SP,-4
 24E7 08                push A
 24E8 5100              mov A,[__r1]
 24EA 08                push A
 24EB 5100              mov A,[__r2]
 24ED 08                push A
 24EE 5100              mov A,[__r3]
 24F0 08                push A
 24F1 7C0000            xcall _cosf
 24F4 38FC              add SP,-4
 24F6 62D000            mov REG[0xd0],>__r0
 24F9 5201              mov A,[X+1]
 24FB 1140              sub A,64
 24FD 5300              mov [__r5],A
 24FF 5200              mov A,[X+0]
 2501 1900              sbb A,0
 2503 5300              mov [__r4],A
 2505 6500              asl [__r5]
 2507 6B00              rlc [__r4]
 2509 6500              asl [__r5]
 250B 6B00              rlc [__r4]
 250D 060000            add [__r5],<_mod
 2510 0E0000            adc [__r4],>_mod
 2513 5100              mov A,[__r4]
 2515 60D4              mov REG[0xd4],A
 2517 3E00              mvi A,[__r5]
 2519 5300              mov [__r8],A
 251B 3E00              mvi A,[__r5]
 251D 5300              mov [__r9],A
 251F 3E00              mvi A,[__r5]
 2521 5300              mov [__r10],A
 2523 3E00              mvi A,[__r5]
 2525 160004            sub [__r5],4
 2528 5300              mov [__r11],A
 252A 5100              mov A,[__r0]
 252C 08                push A
 252D 5100              mov A,[__r1]
 252F 08                push A
 2530 5100              mov A,[__r2]
 2532 08                push A
 2533 5100              mov A,[__r3]
 2535 08                push A
 2536 5100              mov A,[__r8]
 2538 08                push A
 2539 5100              mov A,[__r9]
 253B 08                push A
 253C 5100              mov A,[__r10]
 253E 08                push A
 253F 5100              mov A,[__r11]
 2541 08                push A
 2542 7C0000            xcall __fpadd
 2545 18                pop A
 2546 5300              mov [__r3],A
 2548 18                pop A
 2549 5300              mov [__r2],A
 254B 18                pop A
 254C 5300              mov [__r1],A
 254E 18                pop A
 254F 5300              mov [__r0],A
 2551 38FC              add SP,-4
 2553 5100              mov A,[__r4]
 2555 60D5              mov REG[0xd5],A
 2557 5100              mov A,[__r0]
 2559 3F00              mvi [__r5],A
 255B 5100              mov A,[__r1]
 255D 3F00              mvi [__r5],A
 255F 5100              mov A,[__r2]
 2561 3F00              mvi [__r5],A
 2563 5100              mov A,[__r3]
 2565 3F00              mvi [__r5],A
 2567                   .dbline 325
 2567           ;                       temp = mod[q-64];
 2567 5201              mov A,[X+1]
 2569 1140              sub A,64
 256B 5300              mov [__r1],A
 256D 5200              mov A,[X+0]
 256F 1900              sbb A,0
 2571 5300              mov [__r0],A
 2573 6500              asl [__r1]
 2575 6B00              rlc [__r0]
 2577 6500              asl [__r1]
 2579 6B00              rlc [__r0]
 257B 060000            add [__r1],<_mod
 257E 0E0000            adc [__r0],>_mod
 2581 5100              mov A,[__r0]
 2583 60D4              mov REG[0xd4],A
 2585 3E00              mvi A,[__r1]
 2587 5408              mov [X+8],A
 2589 3E00              mvi A,[__r1]
 258B 5409              mov [X+9],A
 258D 3E00              mvi A,[__r1]
 258F 540A              mov [X+10],A
 2591 3E00              mvi A,[__r1]
 2593 540B              mov [X+11],A
 2595                   .dbline 326
 2595           ;               }
 2595           L128:
 2595                   .dbline 327
 2595           ;               }
 2595           L126:
 2595                   .dbline 329
 2595           ;               
 2595           ;               if(q>127)
 2595 507F              mov A,127
 2597 1301              sub A,[X+1]
 2599 5200              mov A,[X+0]
 259B 3180              xor A,-128
 259D 62D000            mov REG[0xd0],>__r0
 25A0 5300              mov [__rX],A
 25A2 5080              mov A,(0 ^ 0x80)
 25A4 1A00              sbb A,[__rX]
 25A6 D103              jnc L130
 25A8           X86:
 25A8                   .dbline 331
 25A8           ;               {
 25A8           ;                       data_re1[q-128]=data_re1[q-128]+cos(data_re[n]-ph);
 25A8                   .dbline 331
 25A8 62D000            mov REG[0xd0],>__r0
 25AB 5203              mov A,[X+3]
 25AD 5300              mov [__r1],A
 25AF 5202              mov A,[X+2]
 25B1 5300              mov [__r0],A
 25B3 6500              asl [__r1]
 25B5 6B00              rlc [__r0]
 25B7 6500              asl [__r1]
 25B9 6B00              rlc [__r0]
 25BB 060000            add [__r1],<_data_re
 25BE 0E0000            adc [__r0],>_data_re
 25C1 5100              mov A,[__r0]
 25C3 60D4              mov REG[0xd4],A
 25C5 3E00              mvi A,[__r1]
 25C7 5300              mov [__r4],A
 25C9 3E00              mvi A,[__r1]
 25CB 5300              mov [__r5],A
 25CD 3E00              mvi A,[__r1]
 25CF 5300              mov [__r6],A
 25D1 3E00              mvi A,[__r1]
 25D3 5300              mov [__r7],A
 25D5 5204              mov A,[X+4]
 25D7 08                push A
 25D8 5205              mov A,[X+5]
 25DA 08                push A
 25DB 5206              mov A,[X+6]
 25DD 08                push A
 25DE 5207              mov A,[X+7]
 25E0 08                push A
 25E1 5100              mov A,[__r4]
 25E3 08                push A
 25E4 5100              mov A,[__r5]
 25E6 08                push A
 25E7 5100              mov A,[__r6]
 25E9 08                push A
 25EA 5100              mov A,[__r7]
 25EC 08                push A
 25ED 7C0000            xcall __fpsub
 25F0 18                pop A
 25F1 5300              mov [__r3],A
 25F3 18                pop A
 25F4 5300              mov [__r2],A
 25F6 18                pop A
 25F7 5300              mov [__r1],A
 25F9 18                pop A
 25FA 38FC              add SP,-4
 25FC 08                push A
 25FD 5100              mov A,[__r1]
 25FF 08                push A
 2600 5100              mov A,[__r2]
 2602 08                push A
 2603 5100              mov A,[__r3]
 2605 08                push A
 2606 7C0000            xcall _cosf
 2609 38FC              add SP,-4
 260B 62D000            mov REG[0xd0],>__r0
 260E 5201              mov A,[X+1]
 2610 1180              sub A,-128
 2612 5300              mov [__r5],A
 2614 5200              mov A,[X+0]
 2616 1900              sbb A,0
 2618 5300              mov [__r4],A
 261A 6500              asl [__r5]
 261C 6B00              rlc [__r4]
 261E 6500              asl [__r5]
 2620 6B00              rlc [__r4]
 2622 060000            add [__r5],<_data_re1
 2625 0E0000            adc [__r4],>_data_re1
 2628 5100              mov A,[__r4]
 262A 60D4              mov REG[0xd4],A
 262C 3E00              mvi A,[__r5]
 262E 5300              mov [__r8],A
 2630 3E00              mvi A,[__r5]
 2632 5300              mov [__r9],A
 2634 3E00              mvi A,[__r5]
 2636 5300              mov [__r10],A
 2638 3E00              mvi A,[__r5]
 263A 160004            sub [__r5],4
 263D 5300              mov [__r11],A
 263F 5100              mov A,[__r0]
 2641 08                push A
 2642 5100              mov A,[__r1]
 2644 08                push A
 2645 5100              mov A,[__r2]
 2647 08                push A
 2648 5100              mov A,[__r3]
 264A 08                push A
 264B 5100              mov A,[__r8]
 264D 08                push A
 264E 5100              mov A,[__r9]
 2650 08                push A
 2651 5100              mov A,[__r10]
 2653 08                push A
 2654 5100              mov A,[__r11]
 2656 08                push A
 2657 7C0000            xcall __fpadd
 265A 18                pop A
 265B 5300              mov [__r3],A
 265D 18                pop A
 265E 5300              mov [__r2],A
 2660 18                pop A
 2661 5300              mov [__r1],A
 2663 18                pop A
 2664 5300              mov [__r0],A
 2666 38FC              add SP,-4
 2668 5100              mov A,[__r4]
 266A 60D5              mov REG[0xd5],A
 266C 5100              mov A,[__r0]
 266E 3F00              mvi [__r5],A
 2670 5100              mov A,[__r1]
 2672 3F00              mvi [__r5],A
 2674 5100              mov A,[__r2]
 2676 3F00              mvi [__r5],A
 2678 5100              mov A,[__r3]
 267A 3F00              mvi [__r5],A
 267C                   .dbline 332
 267C           ;                       temp = data_re1[q-128];
 267C 5201              mov A,[X+1]
 267E 1180              sub A,-128
 2680 5300              mov [__r1],A
 2682 5200              mov A,[X+0]
 2684 1900              sbb A,0
 2686 5300              mov [__r0],A
 2688 6500              asl [__r1]
 268A 6B00              rlc [__r0]
 268C 6500              asl [__r1]
 268E 6B00              rlc [__r0]
 2690 060000            add [__r1],<_data_re1
 2693 0E0000            adc [__r0],>_data_re1
 2696 5100              mov A,[__r0]
 2698 60D4              mov REG[0xd4],A
 269A 3E00              mvi A,[__r1]
 269C 5408              mov [X+8],A
 269E 3E00              mvi A,[__r1]
 26A0 5409              mov [X+9],A
 26A2 3E00              mvi A,[__r1]
 26A4 540A              mov [X+10],A
 26A6 3E00              mvi A,[__r1]
 26A8 540B              mov [X+11],A
 26AA                   .dbline 333
 26AA           ;               }
 26AA           L130:
 26AA                   .dbline 334
 26AA           ;               LCD_Position(1,8);
 26AA 10                push X
 26AB 5708              mov X,8
 26AD 5001              mov A,1
 26AF 7C0000            xcall _LCD_Position
 26B2 20                pop X
 26B3                   .dbline 335
 26B3           ;               LCD_PrHexInt(n);
 26B3 10                push X
 26B4 5202              mov A,[X+2]
 26B6 08                push A
 26B7 5203              mov A,[X+3]
 26B9 20                pop X
 26BA 7C0000            xcall _LCD_PrHexInt
 26BD 20                pop X
 26BE                   .dbline 337
 26BE           ;               
 26BE           ;       }
 26BE           L121:
 26BE                   .dbline 306
 26BE 7703              inc [X+3]
 26C0 0F0200            adc [X+2],0
 26C3                   .dbline 306
 26C3 5203              mov A,[X+3]
 26C5 111F              sub A,31
 26C7 5202              mov A,[X+2]
 26C9 3180              xor A,-128
 26CB 1980              sbb A,(0 ^ 0x80)
 26CD CC3C              jc L120
 26CF           X87:
 26CF                   .dbline 339
 26CF           ;       
 26CF           ;       if(temp>max)
 26CF 5212              mov A,[X+18]
 26D1 08                push A
 26D2 5213              mov A,[X+19]
 26D4 08                push A
 26D5 5214              mov A,[X+20]
 26D7 08                push A
 26D8 5215              mov A,[X+21]
 26DA 08                push A
 26DB 5208              mov A,[X+8]
 26DD 08                push A
 26DE 5209              mov A,[X+9]
 26E0 08                push A
 26E1 520A              mov A,[X+10]
 26E3 08                push A
 26E4 520B              mov A,[X+11]
 26E6 08                push A
 26E7 62D000            mov REG[0xd0],>__r0
 26EA 7C0000            xcall __fpcmp
 26ED 38F8              add SP,-8
 26EF 3900              cmp A,0
 26F1 A04E              jz L132
 26F3 3901              cmp A,1
 26F5 B04A              jnz L132
 26F7                   .dbline 341
 26F7           ;       {
 26F7           ;               max=temp;
 26F7                   .dbline 341
 26F7 5208              mov A,[X+8]
 26F9 5412              mov [X+18],A
 26FB 5209              mov A,[X+9]
 26FD 5413              mov [X+19],A
 26FF 520A              mov A,[X+10]
 2701 5414              mov [X+20],A
 2703 520B              mov A,[X+11]
 2705 5415              mov [X+21],A
 2707                   .dbline 342
 2707           ;               qmax=q;
 2707 5201              mov A,[X+1]
 2709 5419              mov [X+25],A
 270B 5200              mov A,[X+0]
 270D 5418              mov [X+24],A
 270F 481880            tst [X+24],-128
 2712 A009              jz X89
 2714 5617FF            mov [X+23],-1
 2717 5616FF            mov [X+22],-1
 271A 8007              jmp X90
 271C           X89:
 271C 561700            mov [X+23],0
 271F 561600            mov [X+22],0
 2722           X90:
 2722 5216              mov A,[X+22]
 2724 08                push A
 2725 5217              mov A,[X+23]
 2727 08                push A
 2728 5218              mov A,[X+24]
 272A 08                push A
 272B 5219              mov A,[X+25]
 272D 08                push A
 272E 62D000            mov REG[0xd0],>__r0
 2731 7C0000            xcall __long2fp
 2734 18                pop A
 2735 5419              mov [X+25],A
 2737 18                pop A
 2738 5418              mov [X+24],A
 273A 18                pop A
 273B 5417              mov [X+23],A
 273D 18                pop A
 273E 5416              mov [X+22],A
 2740                   .dbline 343
 2740           ;       }
 2740           L132:
 2740                   .dbline 344
 2740           ;       LCD_Position(1,0);
 2740 10                push X
 2741 5700              mov X,0
 2743 5001              mov A,1
 2745 7C0000            xcall _LCD_Position
 2748 20                pop X
 2749                   .dbline 345
 2749           ;       LCD_PrHexInt(q);
 2749 10                push X
 274A 5200              mov A,[X+0]
 274C 08                push A
 274D 5201              mov A,[X+1]
 274F 20                pop X
 2750 7C0000            xcall _LCD_PrHexInt
 2753 20                pop X
 2754                   .dbline 346
 2754           ; }
 2754           L117:
 2754                   .dbline 302
 2754 7701              inc [X+1]
 2756 0F0000            adc [X+0],0
 2759                   .dbline 302
 2759 5201              mov A,[X+1]
 275B 11A2              sub A,-94
 275D 5200              mov A,[X+0]
 275F 3180              xor A,-128
 2761 1980              sbb A,(0 ^ 0x80)
 2763 CB74              jc L116
 2765           X91:
 2765                   .dbline 348
 2765           ; 
 2765           ; qmax=qmax-81;
 2765 5042              mov A,66
 2767 08                push A
 2768 50A2              mov A,-94
 276A 08                push A
 276B 5000              mov A,0
 276D 08                push A
 276E 08                push A
 276F 5216              mov A,[X+22]
 2771 08                push A
 2772 5217              mov A,[X+23]
 2774 08                push A
 2775 5218              mov A,[X+24]
 2777 08                push A
 2778 5219              mov A,[X+25]
 277A 08                push A
 277B 62D000            mov REG[0xd0],>__r0
 277E 7C0000            xcall __fpsub
 2781 18                pop A
 2782 5419              mov [X+25],A
 2784 18                pop A
 2785 5418              mov [X+24],A
 2787 18                pop A
 2788 5417              mov [X+23],A
 278A 18                pop A
 278B 5416              mov [X+22],A
 278D 38FC              add SP,-4
 278F                   .dbline 349
 278F           ; qmax=qmax/10;
 278F 5041              mov A,65
 2791 08                push A
 2792 5020              mov A,32
 2794 08                push A
 2795 5000              mov A,0
 2797 08                push A
 2798 08                push A
 2799 5216              mov A,[X+22]
 279B 08                push A
 279C 5217              mov A,[X+23]
 279E 08                push A
 279F 5218              mov A,[X+24]
 27A1 08                push A
 27A2 5219              mov A,[X+25]
 27A4 08                push A
 27A5 7C0000            xcall __fpdiv
 27A8 18                pop A
 27A9 5419              mov [X+25],A
 27AB 18                pop A
 27AC 5418              mov [X+24],A
 27AE 18                pop A
 27AF 5417              mov [X+23],A
 27B1 18                pop A
 27B2 5416              mov [X+22],A
 27B4 38FC              add SP,-4
 27B6                   .dbline 350
 27B6           ; value = qmax*0.12937823;                      //345) / (0.20*13333);
 27B6 5216              mov A,[X+22]
 27B8 08                push A
 27B9 5217              mov A,[X+23]
 27BB 08                push A
 27BC 5218              mov A,[X+24]
 27BE 08                push A
 27BF 5219              mov A,[X+25]
 27C1 08                push A
 27C2 503E              mov A,62
 27C4 08                push A
 27C5 5004              mov A,4
 27C7 08                push A
 27C8 507B              mov A,123
 27CA 08                push A
 27CB 50BA              mov A,-70
 27CD 08                push A
 27CE 7C0000            xcall __fpmul
 27D1 18                pop A
 27D2 5423              mov [X+35],A
 27D4 18                pop A
 27D5 5422              mov [X+34],A
 27D7 18                pop A
 27D8 5421              mov [X+33],A
 27DA 18                pop A
 27DB 5420              mov [X+32],A
 27DD 38FC              add SP,-4
 27DF                   .dbline 351
 27DF           ; if (value > 1)
 27DF 503F              mov A,63
 27E1 08                push A
 27E2 5080              mov A,-128
 27E4 08                push A
 27E5 5000              mov A,0
 27E7 08                push A
 27E8 08                push A
 27E9 5220              mov A,[X+32]
 27EB 08                push A
 27EC 5221              mov A,[X+33]
 27EE 08                push A
 27EF 5222              mov A,[X+34]
 27F1 08                push A
 27F2 5223              mov A,[X+35]
 27F4 08                push A
 27F5 7C0000            xcall __fpcmp
 27F8 38F8              add SP,-8
 27FA 3900              cmp A,0
 27FC A011              jz L134
 27FE 3901              cmp A,1
 2800 B00D              jnz L134
 2802                   .dbline 352
 2802           ;     value = 1;
 2802 56203F            mov [X+32],63
 2805 562180            mov [X+33],-128
 2808 562200            mov [X+34],0
 280B 562300            mov [X+35],0
 280E           L134:
 280E                   .dbline 353
 280E           ; if (value < -1)
 280E 50BF              mov A,-65
 2810 08                push A
 2811 5080              mov A,-128
 2813 08                push A
 2814 5000              mov A,0
 2816 08                push A
 2817 08                push A
 2818 5220              mov A,[X+32]
 281A 08                push A
 281B 5221              mov A,[X+33]
 281D 08                push A
 281E 5222              mov A,[X+34]
 2820 08                push A
 2821 5223              mov A,[X+35]
 2823 08                push A
 2824 62D000            mov REG[0xd0],>__r0
 2827 7C0000            xcall __fpcmp
 282A 38F8              add SP,-8
 282C 3900              cmp A,0
 282E A011              jz L136
 2830 3901              cmp A,1
 2832 A00D              jz L136
 2834                   .dbline 354
 2834           ;     value = -1;
 2834 5620BF            mov [X+32],-65
 2837 562180            mov [X+33],-128
 283A 562200            mov [X+34],0
 283D 562300            mov [X+35],0
 2840           L136:
 2840                   .dbline 355
 2840           ; UART_CPutString("\n\rBefore Sine\n\r");
 2840 10                push X
 2841 501D              mov A,>L138
 2843 08                push A
 2844 501D              mov A,<L138
 2846 5C                mov X,A
 2847 18                pop A
 2848 7C0000            xcall _UART_CPutString
 284B 20                pop X
 284C                   .dbline 356
 284C           ; doa = asin(value); 
 284C 5220              mov A,[X+32]
 284E 08                push A
 284F 5221              mov A,[X+33]
 2851 08                push A
 2852 5222              mov A,[X+34]
 2854 08                push A
 2855 5223              mov A,[X+35]
 2857 08                push A
 2858 7C0000            xcall _asinf
 285B 62D000            mov REG[0xd0],>__r0
 285E 5100              mov A,[__r0]
 2860 541A              mov [X+26],A
 2862 5100              mov A,[__r1]
 2864 541B              mov [X+27],A
 2866 5100              mov A,[__r2]
 2868 541C              mov [X+28],A
 286A 5100              mov A,[__r3]
 286C 541D              mov [X+29],A
 286E                   .dbline 357
 286E           ; temp1 = ftoa(doa, &Status);
 286E 5A00              mov [__r1],X
 2870 060024            add [__r1],36
 2873 5007              mov A,7
 2875 08                push A
 2876 5100              mov A,[__r1]
 2878 08                push A
 2879 521A              mov A,[X+26]
 287B 08                push A
 287C 521B              mov A,[X+27]
 287E 08                push A
 287F 521C              mov A,[X+28]
 2881 08                push A
 2882 521D              mov A,[X+29]
 2884 08                push A
 2885 7C0000            xcall _ftoa
 2888 38F6              add SP,-10
 288A 62D000            mov REG[0xd0],>__r0
 288D 5100              mov A,[__r1]
 288F 541F              mov [X+31],A
 2891 5100              mov A,[__r0]
 2893 541E              mov [X+30],A
 2895                   .dbline 358
 2895           ; UART_PutString(temp1);
 2895 10                push X
 2896 521E              mov A,[X+30]
 2898 08                push A
 2899 521F              mov A,[X+31]
 289B 5C                mov X,A
 289C 18                pop A
 289D 7C0000            xcall _UART_PutString
 28A0 20                pop X
 28A1                   .dbline 359
 28A1           ; doa = doa*57.29577;
 28A1 521A              mov A,[X+26]
 28A3 08                push A
 28A4 521B              mov A,[X+27]
 28A6 08                push A
 28A7 521C              mov A,[X+28]
 28A9 08                push A
 28AA 521D              mov A,[X+29]
 28AC 08                push A
 28AD 5042              mov A,66
 28AF 08                push A
 28B0 5065              mov A,101
 28B2 08                push A
 28B3 502E              mov A,46
 28B5 08                push A
 28B6 50DE              mov A,-34
 28B8 08                push A
 28B9 62D000            mov REG[0xd0],>__r0
 28BC 7C0000            xcall __fpmul
 28BF 18                pop A
 28C0 541D              mov [X+29],A
 28C2 18                pop A
 28C3 541C              mov [X+28],A
 28C5 18                pop A
 28C6 541B              mov [X+27],A
 28C8 18                pop A
 28C9 541A              mov [X+26],A
 28CB 38FC              add SP,-4
 28CD                   .dbline 360
 28CD           ; UART_CPutString("\n\rAfter Multiplication\n\r");
 28CD 10                push X
 28CE 5004              mov A,>L139
 28D0 08                push A
 28D1 5004              mov A,<L139
 28D3 5C                mov X,A
 28D4 18                pop A
 28D5 7C0000            xcall _UART_CPutString
 28D8 20                pop X
 28D9                   .dbline 361
 28D9           ; temp1 = ftoa(doa, &Status);
 28D9 62D000            mov REG[0xd0],>__r0
 28DC 5A00              mov [__r1],X
 28DE 060024            add [__r1],36
 28E1 5007              mov A,7
 28E3 08                push A
 28E4 5100              mov A,[__r1]
 28E6 08                push A
 28E7 521A              mov A,[X+26]
 28E9 08                push A
 28EA 521B              mov A,[X+27]
 28EC 08                push A
 28ED 521C              mov A,[X+28]
 28EF 08                push A
 28F0 521D              mov A,[X+29]
 28F2 08                push A
 28F3 7C0000            xcall _ftoa
 28F6 38FA              add SP,-6
 28F8 62D000            mov REG[0xd0],>__r0
 28FB 5100              mov A,[__r1]
 28FD 541F              mov [X+31],A
 28FF 5100              mov A,[__r0]
 2901 541E              mov [X+30],A
 2903                   .dbline 362
 2903           ; UART_PutString(temp1);
 2903 10                push X
 2904 521E              mov A,[X+30]
 2906 08                push A
 2907 521F              mov A,[X+31]
 2909 5C                mov X,A
 290A 18                pop A
 290B 7C0000            xcall _UART_PutString
 290E 20                pop X
 290F                   .dbline 364
 290F           ; //doa = doa*100;
 290F           ; LCD_Clear();
 290F 7C14BE            xcall _LCD_Clear
 2912                   .dbline 365
 2912           ; UART_CPutString("\n\r");
 2912 10                push X
 2913 504D              mov A,>L59
 2915 08                push A
 2916 504D              mov A,<L59
 2918 5C                mov X,A
 2919 18                pop A
 291A 7C0000            xcall _UART_CPutString
 291D 20                pop X
 291E                   .dbline 366
 291E           ; if(doa<0)
 291E 5000              mov A,0
 2920 08                push A
 2921 08                push A
 2922 08                push A
 2923 08                push A
 2924 521A              mov A,[X+26]
 2926 08                push A
 2927 521B              mov A,[X+27]
 2929 08                push A
 292A 521C              mov A,[X+28]
 292C 08                push A
 292D 521D              mov A,[X+29]
 292F 08                push A
 2930 62D000            mov REG[0xd0],>__r0
 2933 7C0000            xcall __fpcmp
 2936 38F8              add SP,-8
 2938 3900              cmp A,0
 293A A09F              jz L140
 293C 3901              cmp A,1
 293E A09B              jz L140
 2940                   .dbline 368
 2940           ; {
 2940           ; doa=-1*doa;
 2940                   .dbline 368
 2940 521A              mov A,[X+26]
 2942 08                push A
 2943 521B              mov A,[X+27]
 2945 08                push A
 2946 521C              mov A,[X+28]
 2948 08                push A
 2949 521D              mov A,[X+29]
 294B 08                push A
 294C 50BF              mov A,-65
 294E 08                push A
 294F 5080              mov A,-128
 2951 08                push A
 2952 5000              mov A,0
 2954 08                push A
 2955 08                push A
 2956 7C0000            xcall __fpmul
 2959 18                pop A
 295A 541D              mov [X+29],A
 295C 18                pop A
 295D 541C              mov [X+28],A
 295F 18                pop A
 2960 541B              mov [X+27],A
 2962 18                pop A
 2963 541A              mov [X+26],A
 2965 38FC              add SP,-4
 2967                   .dbline 369
 2967           ; LCD_Position(1,11);
 2967 10                push X
 2968 570B              mov X,11
 296A 5001              mov A,1
 296C 7C0000            xcall _LCD_Position
 296F                   .dbline 370
 296F           ; LCD_PrCString("n");
 296F 5002              mov A,>L142
 2971 08                push A
 2972 5002              mov A,<L142
 2974 5C                mov X,A
 2975 18                pop A
 2976 7C0000            xcall _LCD_PrCString
 2979 20                pop X
 297A                   .dbline 371
 297A           ; temp1 = ftoa(doa, &Status);
 297A 62D000            mov REG[0xd0],>__r0
 297D 5A00              mov [__r1],X
 297F 060024            add [__r1],36
 2982 5007              mov A,7
 2984 08                push A
 2985 5100              mov A,[__r1]
 2987 08                push A
 2988 521A              mov A,[X+26]
 298A 08                push A
 298B 521B              mov A,[X+27]
 298D 08                push A
 298E 521C              mov A,[X+28]
 2990 08                push A
 2991 521D              mov A,[X+29]
 2993 08                push A
 2994 7C0000            xcall _ftoa
 2997 38FA              add SP,-6
 2999 62D000            mov REG[0xd0],>__r0
 299C 5100              mov A,[__r1]
 299E 541F              mov [X+31],A
 29A0 5100              mov A,[__r0]
 29A2 541E              mov [X+30],A
 29A4                   .dbline 372
 29A4           ; UART_PutString(temp1);
 29A4 10                push X
 29A5 521E              mov A,[X+30]
 29A7 08                push A
 29A8 521F              mov A,[X+31]
 29AA 5C                mov X,A
 29AB 18                pop A
 29AC 7C0000            xcall _UART_PutString
 29AF                   .dbline 373
 29AF           ; LCD_Position(1,12);
 29AF 570C              mov X,12
 29B1 5001              mov A,1
 29B3 7C0000            xcall _LCD_Position
 29B6 20                pop X
 29B7                   .dbline 374
 29B7           ; LCD_PrHexInt(doa);
 29B7 62D000            mov REG[0xd0],>__r0
 29BA 521A              mov A,[X+26]
 29BC 08                push A
 29BD 521B              mov A,[X+27]
 29BF 08                push A
 29C0 521C              mov A,[X+28]
 29C2 08                push A
 29C3 521D              mov A,[X+29]
 29C5 08                push A
 29C6 7C0000            xcall __fp2long
 29C9 18                pop A
 29CA 5300              mov [__r1],A
 29CC 18                pop A
 29CD 38FE              add SP,-2
 29CF 10                push X
 29D0 08                push A
 29D1 5100              mov A,[__r1]
 29D3 20                pop X
 29D4 7C0000            xcall _LCD_PrHexInt
 29D7 20                pop X
 29D8                   .dbline 375
 29D8           ; }
 29D8 8072              xjmp L141
 29DA           L140:
 29DA                   .dbline 377
 29DA           ; else
 29DA           ; {
 29DA                   .dbline 378
 29DA           ; LCD_Position(1,11);
 29DA 10                push X
 29DB 570B              mov X,11
 29DD 5001              mov A,1
 29DF 7C0000            xcall _LCD_Position
 29E2                   .dbline 379
 29E2           ; LCD_PrCString("p");
 29E2 5000              mov A,>L143
 29E4 08                push A
 29E5 5000              mov A,<L143
 29E7 5C                mov X,A
 29E8 18                pop A
 29E9 7C0000            xcall _LCD_PrCString
 29EC 20                pop X
 29ED                   .dbline 380
 29ED           ; temp1 = ftoa(doa, &Status);
 29ED 62D000            mov REG[0xd0],>__r0
 29F0 5A00              mov [__r1],X
 29F2 060024            add [__r1],36
 29F5 5007              mov A,7
 29F7 08                push A
 29F8 5100              mov A,[__r1]
 29FA 08                push A
 29FB 521A              mov A,[X+26]
 29FD 08                push A
 29FE 521B              mov A,[X+27]
 2A00 08                push A
 2A01 521C              mov A,[X+28]
 2A03 08                push A
 2A04 521D              mov A,[X+29]
 2A06 08                push A
 2A07 7C0000            xcall _ftoa
 2A0A 38FA              add SP,-6
 2A0C 62D000            mov REG[0xd0],>__r0
 2A0F 5100              mov A,[__r1]
 2A11 541F              mov [X+31],A
 2A13 5100              mov A,[__r0]
 2A15 541E              mov [X+30],A
 2A17                   .dbline 381
 2A17           ; UART_PutString(temp1);
 2A17 10                push X
 2A18 521E              mov A,[X+30]
 2A1A 08                push A
 2A1B 521F              mov A,[X+31]
 2A1D 5C                mov X,A
 2A1E 18                pop A
 2A1F 7C0000            xcall _UART_PutString
 2A22                   .dbline 382
 2A22           ; LCD_Position(1,12);
 2A22 570C              mov X,12
 2A24 5001              mov A,1
 2A26 7C0000            xcall _LCD_Position
 2A29 20                pop X
 2A2A                   .dbline 383
 2A2A           ; LCD_PrHexInt(doa);
 2A2A 62D000            mov REG[0xd0],>__r0
 2A2D 521A              mov A,[X+26]
 2A2F 08                push A
 2A30 521B              mov A,[X+27]
 2A32 08                push A
 2A33 521C              mov A,[X+28]
 2A35 08                push A
 2A36 521D              mov A,[X+29]
 2A38 08                push A
 2A39 7C0000            xcall __fp2long
 2A3C 18                pop A
 2A3D 5300              mov [__r1],A
 2A3F 18                pop A
 2A40 38FE              add SP,-2
 2A42 10                push X
 2A43 08                push A
 2A44 5100              mov A,[__r1]
 2A46 20                pop X
 2A47 7C0000            xcall _LCD_PrHexInt
 2A4A 20                pop X
 2A4B                   .dbline 384
 2A4B           ; }
 2A4B           L141:
 2A4B                   .dbline -2
 2A4B           L107:
 2A4B 38DA              add SP,-38
 2A4D 20                pop X
 2A4E                   .dbline 0 ; func end
 2A4E 7F                ret
 2A4F                   .dbsym l Status 36 I
 2A4F                   .dbsym l value 32 D
 2A4F                   .dbsym l temp1 30 pc
 2A4F                   .dbsym l doa 26 D
 2A4F                   .dbsym l qmax 22 D
 2A4F                   .dbsym l max 18 D
 2A4F                   .dbsym l i 16 I
 2A4F                   .dbsym l phin 12 D
 2A4F                   .dbsym l temp 8 D
 2A4F                   .dbsym l ph 4 D
 2A4F                   .dbsym l n 2 I
 2A4F                   .dbsym l q 0 I
 2A4F                   .dbend
                        .area data(ram, con, rel)
 0000                   .dbfile C:\Users\HARISH~1\Desktop\SEM1CO~1\566\Project3\Versions\VERSIO~1\Project1\Project1\main.c
 0000           _avgCalNoise::
 0000 0000              .byte 0,0
 0002                   .dbsym e avgCalNoise _avgCalNoise i
                        .area data(ram, con, rel)
 0000                   .dbfile C:\Users\HARISH~1\Desktop\SEM1CO~1\566\Project3\Versions\VERSIO~1\Project1\Project1\main.c
 0000           _maxf::
 0000 00000000          .byte 0,0,0,0
 0004                   .dbsym e maxf _maxf D
                        .area data(ram, con, rel)
 0000                   .dbfile C:\Users\HARISH~1\Desktop\SEM1CO~1\566\Project3\Versions\VERSIO~1\Project1\Project1\main.c
 0000           _freq::
 0000 00000000          .byte 0,0,0,0
 0004                   .dbsym e freq _freq D
                        .area data(ram, con, rel)
 0000                   .dbfile C:\Users\HARISH~1\Desktop\SEM1CO~1\566\Project3\Versions\VERSIO~1\Project1\Project1\main.c
 0000           _ar2::
 0000 000000000000000000000000000000000000000000000000000000000000000000000000000000000000000000000000000000000000000000000000  .word 0,0,0,0,0,0,0,0,0,0,0,0,0,0,0,0,0,0,0,0,0,0,0,0,0,0,0,0,0,0
 003C 000000000000000000000000000000000000000000000000000000000000000000000000000000000000000000000000000000000000000000000000  .word 0,0,0,0,0,0,0,0,0,0,0,0,0,0,0,0,0,0,0,0,0,0,0,0,0,0,0,0,0,0
 0078 0000000000000000  .byte 0,0,0,0,0,0,0,0
 0080                   .dbsym e ar2 _ar2 A[128:32]D
                        .area data(ram, con, rel)
 0000                   .dbfile C:\Users\HARISH~1\Desktop\SEM1CO~1\566\Project3\Versions\VERSIO~1\Project1\Project1\main.c
 0000           _ar1::
 0000 000000000000000000000000000000000000000000000000000000000000000000000000000000000000000000000000000000000000000000000000  .word 0,0,0,0,0,0,0,0,0,0,0,0,0,0,0,0,0,0,0,0,0,0,0,0,0,0,0,0,0,0
 003C 000000000000000000000000000000000000000000000000000000000000000000000000000000000000000000000000000000000000000000000000  .word 0,0,0,0,0,0,0,0,0,0,0,0,0,0,0,0,0,0,0,0,0,0,0,0,0,0,0,0,0,0
 0078 0000000000000000  .byte 0,0,0,0,0,0,0,0
 0080                   .dbsym e ar1 _ar1 A[128:32]D
                        .area data(ram, con, rel)
 0000                   .dbfile C:\Users\HARISH~1\Desktop\SEM1CO~1\566\Project3\Versions\VERSIO~1\Project1\Project1\main.c
 0000           _ind::
 0000 0000              .byte 0,0
 0002                   .dbsym e ind _ind i
                        .area data(ram, con, rel)
 0000                   .dbfile C:\Users\HARISH~1\Desktop\SEM1CO~1\566\Project3\Versions\VERSIO~1\Project1\Project1\main.c
 0000           _hannValue1::
 0000 00000000          .byte 0,0,0,0
 0004                   .dbsym e hannValue1 _hannValue1 D
                        .area data(ram, con, rel)
 0000                   .dbfile C:\Users\HARISH~1\Desktop\SEM1CO~1\566\Project3\Versions\VERSIO~1\Project1\Project1\main.c
 0000           _hannValue::
 0000 00000000          .byte 0,0,0,0
 0004                   .dbsym e hannValue _hannValue D
                        .area data(ram, con, rel)
 0000                   .dbfile C:\Users\HARISH~1\Desktop\SEM1CO~1\566\Project3\Versions\VERSIO~1\Project1\Project1\main.c
 0000           _hannMul::
 0000 00000000          .byte 0,0,0,0
 0004                   .dbsym e hannMul _hannMul D
                        .area data(ram, con, rel)
 0000                   .dbfile C:\Users\HARISH~1\Desktop\SEM1CO~1\566\Project3\Versions\VERSIO~1\Project1\Project1\main.c
 0000           _lclFreq::
 0000 0000              .byte 0,0
 0002                   .dbsym e lclFreq _lclFreq I
                        .area data(ram, con, rel)
 0000                   .dbfile C:\Users\HARISH~1\Desktop\SEM1CO~1\566\Project3\Versions\VERSIO~1\Project1\Project1\main.c
 0000           _lclMax::
 0000 0000              .byte 0,0
 0002                   .dbsym e lclMax _lclMax I
                        .area data(ram, con, rel)
 0000                   .dbfile C:\Users\HARISH~1\Desktop\SEM1CO~1\566\Project3\Versions\VERSIO~1\Project1\Project1\main.c
 0000           _compFreq::
 0000 0000              .byte 0,0
 0002                   .dbsym e compFreq _compFreq I
                        .area data(ram, con, rel)
 0000                   .dbfile C:\Users\HARISH~1\Desktop\SEM1CO~1\566\Project3\Versions\VERSIO~1\Project1\Project1\main.c
 0000           _compMax::
 0000 0000              .byte 0,0
 0002                   .dbsym e compMax _compMax I
                        .area data(ram, con, rel)
 0000                   .dbfile C:\Users\HARISH~1\Desktop\SEM1CO~1\566\Project3\Versions\VERSIO~1\Project1\Project1\main.c
 0000           _max::
 0000 0000              .byte 0,0
 0002                   .dbsym e max _max I
                        .area data(ram, con, rel)
 0000                   .dbfile C:\Users\HARISH~1\Desktop\SEM1CO~1\566\Project3\Versions\VERSIO~1\Project1\Project1\main.c
 0000           _avgFirstMat::
 0000 0000              .byte 0,0
 0002                   .dbsym e avgFirstMat _avgFirstMat i
                        .area data(ram, con, rel)
 0000                   .dbfile C:\Users\HARISH~1\Desktop\SEM1CO~1\566\Project3\Versions\VERSIO~1\Project1\Project1\main.c
 0000           _avgFirstCal::
 0000 0000              .byte 0,0
 0002                   .dbsym e avgFirstCal _avgFirstCal i
                        .area data(ram, con, rel)
 0000                   .dbfile C:\Users\HARISH~1\Desktop\SEM1CO~1\566\Project3\Versions\VERSIO~1\Project1\Project1\main.c
 0000           _dispflag::
 0000 0000              .byte 0,0
 0002                   .dbsym e dispflag _dispflag i
                        .area data(ram, con, rel)
 0000                   .dbfile C:\Users\HARISH~1\Desktop\SEM1CO~1\566\Project3\Versions\VERSIO~1\Project1\Project1\main.c
 0000           _maxFreq::
 0000 0000              .byte 0,0
 0002                   .dbfile C:\Users\HARISH~1\Desktop\SEM1CO~1\566\Project3\Versions\VERSIO~1\Project1\Project1\fft.h
 0002                   .dbsym e maxFreq _maxFreq I
                        .area data(ram, con, rel)
 0000                   .dbfile C:\Users\HARISH~1\Desktop\SEM1CO~1\566\Project3\Versions\VERSIO~1\Project1\Project1\fft.h
 0000           _maxAmp::
 0000 0000              .byte 0,0
 0002                   .dbsym e maxAmp _maxAmp I
                        .area lit(rom, con, rel, lit)
 0000           L143:
 0000 7000              .byte 'p,0
 0002           L142:
 0002 6E00              .byte 'n,0
 0004           L139:
 0004 0A0D4166746572204D756C7469706C69  .byte 10,13,'A,'f,'t,'e,'r,32,'M,'u,'l,'t,'i,'p,'l,'i
 0014 636174696F6E0A0D00        .byte 'c,'a,'t,'i,'o,'n,10,13,0
 001D           L138:
 001D 0A0D4265666F72652053696E650A0D00  .byte 10,13,'B,'e,'f,'o,'r,'e,32,'S,'i,'n,'e,10,13,0
 002D           L106:
 002D 45786974696E6720636F7264696300    .byte 'E,'x,'i,'t,'i,'n,'g,32,'c,'o,'r,'d,'i,'c,0
 003C           L73:
 003C 20202020202020202020202020202020  .byte 32,32,32,32,32,32,32,32,32,32,32,32,32,32,32,32
 004C 00                .byte 0
 004D           L59:
 004D 0A0D00            .byte 10,13,0
 0050           L58:
 0050 7D2C00            .byte 125,44,0
 0053           L57:
 0053 7B00              .byte 123,0
 0055           L37:
 0055 0A0D464654204F55545055543A0A0D00  .byte 10,13,'F,'F,'T,32,'O,'U,'T,'P,'U,'T,58,10,13,0
 0065           L36:
 0065 68454C4C4F00      .byte 'h,'E,'L,'L,'O,0
